
CH573_PT_Template.elf:     file format elf32-littleriscv
CH573_PT_Template.elf
architecture: riscv:rv32, flags 0x00000112:
EXEC_P, HAS_SYMS, D_PAGED
start address 0x00000000

Program Header:
    LOAD off    0x00001000 vaddr 0x00000000 paddr 0x00000000 align 2**12
         filesz 0x00000004 memsz 0x00000004 flags r-x
    LOAD off    0x00001800 vaddr 0x20003800 paddr 0x00000004 align 2**12
         filesz 0x0000087c memsz 0x0000087c flags r-x
    LOAD off    0x00002880 vaddr 0x00000880 paddr 0x00000880 align 2**12
         filesz 0x000020c8 memsz 0x000020c8 flags r-x
    LOAD off    0x0000507c vaddr 0x2000407c paddr 0x00002948 align 2**12
         filesz 0x00000078 memsz 0x00000224 flags rw-

Sections:
Idx Name            Size      VMA       LMA       File off  Algn  Flags
  0 .init           00000004  00000000  00000000  00001000  2**1  CONTENTS, ALLOC, LOAD, READONLY, CODE
  1 .highcodelalign 00000000  00000004  00000004  000050f4  2**0  CONTENTS
  2 .highcode       0000087c  20003800  00000004  00001800  2**1  CONTENTS, ALLOC, LOAD, READONLY, CODE
  3 .text           000020c8  00000880  00000880  00002880  2**2  CONTENTS, ALLOC, LOAD, READONLY, CODE
  4 .fini           00000000  00002948  00002948  000050f4  2**0  CONTENTS, ALLOC, LOAD, CODE
  5 .dalign         00000000  2000407c  2000407c  000050f4  2**0  CONTENTS
  6 .dlalign        00000000  00002948  00002948  000050f4  2**0  CONTENTS
  7 .data           00000078  2000407c  00002948  0000507c  2**2  CONTENTS, ALLOC, LOAD, DATA
  8 .bss            000001ac  200040f4  000029c0  000050f4  2**2  ALLOC
  9 .stack          00000000  20008000  20008000  000050f4  2**0  CONTENTS
 10 .debug_info     0000a46a  00000000  00000000  000050f4  2**0  CONTENTS, READONLY, DEBUGGING
 11 .debug_abbrev   000020b6  00000000  00000000  0000f55e  2**0  CONTENTS, READONLY, DEBUGGING
 12 .debug_loc      000015cc  00000000  00000000  00011614  2**0  CONTENTS, READONLY, DEBUGGING
 13 .debug_aranges  00000440  00000000  00000000  00012be0  2**3  CONTENTS, READONLY, DEBUGGING
 14 .debug_ranges   00000478  00000000  00000000  00013020  2**3  CONTENTS, READONLY, DEBUGGING
 15 .debug_line     000057ae  00000000  00000000  00013498  2**0  CONTENTS, READONLY, DEBUGGING
 16 .debug_str      000017e1  00000000  00000000  00018c46  2**0  CONTENTS, READONLY, DEBUGGING
 17 .comment        00000033  00000000  00000000  0001a427  2**0  CONTENTS, READONLY
 18 .debug_frame    00001390  00000000  00000000  0001a45c  2**2  CONTENTS, READONLY, DEBUGGING
 19 .stab           00000084  00000000  00000000  0001b7ec  2**2  CONTENTS, READONLY, DEBUGGING
 20 .stabstr        00000117  00000000  00000000  0001b870  2**0  CONTENTS, READONLY, DEBUGGING
SYMBOL TABLE:
00000000 l    d  .init	00000000 .init
00000004 l    d  .highcodelalign	00000000 .highcodelalign
20003800 l    d  .highcode	00000000 .highcode
00000880 l    d  .text	00000000 .text
00002948 l    d  .fini	00000000 .fini
2000407c l    d  .dalign	00000000 .dalign
00002948 l    d  .dlalign	00000000 .dlalign
2000407c l    d  .data	00000000 .data
200040f4 l    d  .bss	00000000 .bss
20008000 l    d  .stack	00000000 .stack
00000000 l    d  .debug_info	00000000 .debug_info
00000000 l    d  .debug_abbrev	00000000 .debug_abbrev
00000000 l    d  .debug_loc	00000000 .debug_loc
00000000 l    d  .debug_aranges	00000000 .debug_aranges
00000000 l    d  .debug_ranges	00000000 .debug_ranges
00000000 l    d  .debug_line	00000000 .debug_line
00000000 l    d  .debug_str	00000000 .debug_str
00000000 l    d  .comment	00000000 .comment
00000000 l    d  .debug_frame	00000000 .debug_frame
00000000 l    d  .stab	00000000 .stab
00000000 l    d  .stabstr	00000000 .stabstr
00000000 l    df *ABS*	00000000 ./Core/Startup/startup_CH573.o
20003800 l       .highcode	00000000 _vector_base
00000000 l    df *ABS*	00000000 pt_ports.c
00000000 l    df *ABS*	00000000 etimer.c
00000f90 l     F .text	0000004a update_time
00000fda l     F .text	000000cc process_thread_etimer_process
200040f8 l     O .bss	00000004 next_expiration
200040fc l     O .bss	00000004 timerlist
00000000 l    df *ABS*	00000000 process.c
20003930 l     F .highcode	00000054 call_process
20003984 l     F .highcode	0000009a exit_process
20003a1e l     F .highcode	00000038 do_poll
20003a56 l     F .highcode	00000090 do_event
2000411c l     O .bss	00000180 events
20004100 l     O .bss	00000001 fevent
20004101 l     O .bss	00000001 nevents
20004102 l     O .bss	00000001 poll_requested
00000000 l    df *ABS*	00000000 CH57x_sys.c
00000000 l    df *ABS*	00000000 RTC.c
00000000 l    df *ABS*	00000000 ISP573.c
20003cb2 l     F .highcode	00000010 FLASH_ROM_BEG
20003cc2 l     F .highcode	0000000e FLASH_ROM_END
20003cc2 l       .highcode	00000000 .loop17
20003cd0 l     F .highcode	0000000e FLASH_ROM_IN
20003cd0 l       .highcode	00000000 .loop28
20003cde l     F .highcode	0000000e FLASH_ROM_OUT
20003cde l       .highcode	00000000 .loop39
20003cec l     F .highcode	00000048 FLASH_ROM_ADDR
20003d34 l     F .highcode	00000038 FLASH_ROM_WAIT
20003f5e l       .highcode	00000000 .loop400
00000000 l    df *ABS*	00000000 st7789v_driver.c
00000000 l    df *ABS*	00000000 ui_test_main2.c
00000000 l    df *ABS*	00000000 timer.c
00000000 l    df *ABS*	00000000 CH57x_gpio.c
00000000 l    df *ABS*	00000000 CH57x_spi0.c
00000000 l    df *ABS*	00000000 CH57x_uart1.c
00000000 l    df *ABS*	00000000 memcpy.c
00000000 l    df *ABS*	00000000 printf.c
00000000 l    df *ABS*	00000000 putchar.c
00000000 l    df *ABS*	00000000 puts.c
00000000 l    df *ABS*	00000000 wbuf.c
00000000 l    df *ABS*	00000000 wsetup.c
00000000 l    df *ABS*	00000000 fflush.c
00000000 l    df *ABS*	00000000 findfp.c
00001894 l     F .text	0000006a std
00000000 l    df *ABS*	00000000 fwalk.c
00000000 l    df *ABS*	00000000 makebuf.c
00000000 l    df *ABS*	00000000 nano-mallocr.c
00000000 l    df *ABS*	00000000 nano-mallocr.c
00000000 l    df *ABS*	00000000 nano-vfprintf.c
00001d3c l     F .text	0000002a __sfputc_r
00000000 l    df *ABS*	00000000 nano-vfprintf_i.c
00000000 l    df *ABS*	00000000 putc.c
00000000 l    df *ABS*	00000000 sbrkr.c
00000000 l    df *ABS*	00000000 stdio.c
00000000 l    df *ABS*	00000000 writer.c
00000000 l    df *ABS*	00000000 closer.c
00000000 l    df *ABS*	00000000 fstatr.c
00000000 l    df *ABS*	00000000 isattyr.c
00000000 l    df *ABS*	00000000 lseekr.c
00000000 l    df *ABS*	00000000 memchr.c
00000000 l    df *ABS*	00000000 mlock.c
00000000 l    df *ABS*	00000000 readr.c
00000000 l    df *ABS*	00000000 close.c
00000000 l    df *ABS*	00000000 fstat.c
00000000 l    df *ABS*	00000000 isatty.c
00000000 l    df *ABS*	00000000 lseek.c
00000000 l    df *ABS*	00000000 read.c
00000000 l    df *ABS*	00000000 sbrk.c
20004118 l     O .bss	00000004 heap_end.1518
00000000 l    df *ABS*	00000000 impure.c
20004088 l     O .data	00000060 impure_data
00000000 l    df *ABS*	00000000 reent.c
0000140e g     F .text	0000002e putchar
000025de g     F .text	00000028 _isatty_r
0000143c g     F .text	000000da _puts_r
00002606 g     F .text	0000002c _lseek_r
000013ca g     F .text	00000044 printf
200048e8 g       .data	00000000 __global_pointer$
00002522 g     F .text	00000036 __sseek
0000194e g     F .text	0000006a __sinit
00001524 g     F .text	000000c0 __swbuf_r
20003c66 g     F .highcode	0000000e mDelayuS
20003c54 g     F .highcode	00000012 HardFault_Handler
2000390c g     F .highcode	0000000c etimer_pending
00001908 g     F .text	00000046 __sfmoreglue
2000389c  w      .highcode	00000000 GPIOB_IRQHandler
0000264e g     F .text	00000002 __malloc_unlock
200038bc g     F .highcode	00000008 protothread_clock_time
2000389a  w      .highcode	00000000 GPIOA_IRQHandler
200038c4 g     F .highcode	0000003e SysTick_Handler
00000a4a g     F .text	00000028 st7789_RunCommands
20003890  w      .highcode	00000000 NMI_Handler
000010a6 g     F .text	00000036 process_post
200038ac  w      .highcode	00000000 UART1_IRQHandler
00000e10 g     F .text	0000004e LCD_IO_Init
2000407c g     O .data	0000000c etimer_process
00000a72 g     F .text	0000008e st7789_SetWindow
000025b4 g     F .text	0000002a _fstat_r
2000429c g     O .bss	00000004 errno
200040f4 g       .bss	00000000 _sbss
2000410c g     O .bss	00000004 RTCTigFlag
00000e5e g     F .text	0000003a LCD_IO_WriteCommand
200038aa  w      .highcode	00000000 UART0_IRQHandler
00000b00 g     F .text	0000006c st7789_FillArea
20004108 g     O .bss	00000004 process_list
00001314 g     F .text	000000b6 memcpy
000018fe g     F .text	0000000a _cleanup_r
00001516 g     F .text	0000000e puts
00002688 g     F .text	0000000c _fstat
00000004 g       .init	00000000 _einit
200038a0  w      .highcode	00000000 BB_IRQHandler
20003d6c g     F .highcode	0000030e FLASH_EEPROM_CMD
0000247c g     F .text	00000028 _sbrk_r
20003898  w      .highcode	00000000 TMR0_IRQHandler
00002650 g     F .text	0000002c _read_r
20003c74 g     F .highcode	00000028 mDelaymS
000011a6 g     F .text	00000032 SPI0_MasterDefInit
00000e98 g     F .text	0000003a LCD_IO_WriteData
00002694 g     F .text	0000000c _isatty
000011fc g     F .text	0000004c SPI0_MasterTrans
00002944 g     O .text	00000004 _global_impure_ptr
20003b08 g     F .highcode	0000001c process_poll
000026b8 g     F .text	00000020 _sbrk
20003c9c g     F .highcode	00000016 RTC_IRQHandler
200042a0 g       .bss	00000000 _ebss
000012e2 g     F .text	00000032 UART1_DefInit
000023f6 g     F .text	00000086 _putc_r
000028a8 g     O .text	00000020 __sf_fake_stderr
000010dc g     F .text	00000024 timer_expired
200042a0 g       .bss	00000000 end
200038b6  w      .highcode	00000000 UART2_IRQHandler
200038b2  w      .highcode	00000000 PWMX_IRQHandler
00001d66 g     F .text	00000042 __sfputs_r
00002632 g     F .text	0000001a memchr
00001bbc g     F .text	000000a8 _free_r
00000ede g     F .text	0000002a DebugInit
00000000 g       .init	00000000 _start
000026a0 g     F .text	0000000c _lseek
200038b0  w      .highcode	00000000 ADC_IRQHandler
20003800 g       .highcode	00000000 _highcode_vma_start
200038a8  w      .highcode	00000000 TMR2_IRQHandler
20003918 g     F .highcode	00000018 etimer_next_expiration_time
0000258c g     F .text	00000028 _close_r
2000407c g       .data	00000000 _data_vma
20003902 g     F .highcode	0000000a etimer_request_poll
20003b24 g     F .highcode	000000f8 SetSysClock
200038a4  w      .highcode	00000000 USB_IRQHandler
000015e4 g     F .text	00000110 __swsetup_r
000019b8 g     F .text	000000a0 __sfp
000024a4 g     F .text	00000030 __sread
000009c6 g     F .text	00000084 st7789_RunCommand
0000264c g     F .text	00000002 __malloc_lock
00001830 g     F .text	00000064 _fflush_r
000028c8 g     O .text	00000020 __sf_fake_stdin
0000091e g     F .text	000000a8 memset
00000f08 g     F .text	00000088 main
00002558 g     F .text	00000006 __sclose
200040f4 g     O .bss	00000004 ptTicks
00001c64 g     F .text	000000d8 _malloc_r
00000004 g       .highcodelalign	00000000 _highcode_lma
00000ed2 g     F .text	0000000c LCD_IO_Delay
000013ca g     F .text	00000044 iprintf
200038a2  w      .highcode	00000000 LLE_IRQHandler
00000000 g       .init	00000000 _sinit
0000255e g     F .text	0000002e _write_r
00002042 g     F .text	0000010c _printf_common
200040e8 g     O .data	00000004 _impure_ptr
000016f4 g     F .text	0000013c __sflush_r
200038ba  w      .highcode	00000000 WDOG_BAT_IRQHandler
200038b4  w      .highcode	00000000 TMR3_IRQHandler
20008000 g       .stack	00000000 _eusrstack
20003896  w      .highcode	00000000 SW_Handler
00001100 g     F .text	000000a6 GPIOA_ModeCfg
00001ac4 g     F .text	0000005a __swhatbuf_r
00001248 g     F .text	00000042 GetSysClock
00000b6c g     F .text	0000000e st7789_Clear
20003ae6 g     F .highcode	00000022 process_run
0000128a g     F .text	00000028 _write
200040f4 g       .data	00000000 _edata
000011d8 g     F .text	00000024 SPI0_MasterSendByte
20004104 g     O .bss	00000004 process_current
2000389e  w      .highcode	00000000 SPI0_IRQHandler
2000407c g       .highcode	00000000 _highcode_vma_end
00002948 g       .dlalign	00000000 _data_lma
000024d4 g     F .text	0000004e __swrite
00001da8 g     F .text	0000029a _vfiprintf_r
00001a58 g     F .text	0000006c _fwalk_reent
00000b7a g     F .text	00000296 st7789_Init
000028e8 g     O .text	00000020 __sf_fake_stdout
000026ac g     F .text	0000000c _read
00000880  w      .text	00000000 handle_reset
00001b1e g     F .text	0000009e __smakebuf_r
0000214e g     F .text	000002a8 _printf_i
200038b8  w      .highcode	00000000 UART3_IRQHandler
20004114 g     O .bss	00000004 __malloc_sbrk_start
20004110 g     O .bss	00000004 __malloc_free_list
00001da8 g     F .text	0000029a _vfprintf_r
200038a6  w      .highcode	00000000 TMR1_IRQHandler
20003c1c g     F .highcode	00000038 SYS_ResetExecute
0000267c g     F .text	0000000c _close
000012b2 g     F .text	00000030 UART1_BaudRateCfg



Disassembly of section .init:

00000000 <_sinit>:
_start():
F:\文档\串口助手\ProtoThread\ProtoThread-Templates-main\CH573_PT_Template\obj/../Core/Startup/startup_CH573.S:13

	.section	.init,"ax",@progbits
	.global	_start
	.align	1
_start:
	j	handle_reset
   0:	0810006f          	j	880 <handle_reset>

Disassembly of section .highcode:

20003800 <_highcode_vma_start>:
	...
_vector_base():
F:\文档\串口助手\ProtoThread\ProtoThread-Templates-main\CH573_PT_Template\obj/../Core/Startup/startup_CH573.S:21
    .align  1
_vector_base:
    .option norvc;
    .word   0
    .word   0
        j   NMI_Handler                 /* NMI Handler */
20003808:	0880006f          	j	20003890 <NMI_Handler>
F:\文档\串口助手\ProtoThread\ProtoThread-Templates-main\CH573_PT_Template\obj/../Core/Startup/startup_CH573.S:22
        j   HardFault_Handler           /* Hard Fault Handler */
2000380c:	4480006f          	j	20003c54 <HardFault_Handler>
	...
F:\文档\串口助手\ProtoThread\ProtoThread-Templates-main\CH573_PT_Template\obj/../Core/Startup/startup_CH573.S:31
    .word   0
    .word   0
    .word   0
    .word   0
    .word   0
        j   SysTick_Handler            /* SysTick Handler */
20003830:	0940006f          	j	200038c4 <SysTick_Handler>
20003834:	0000                	unimp
20003836:	0000                	unimp
F:\文档\串口助手\ProtoThread\ProtoThread-Templates-main\CH573_PT_Template\obj/../Core/Startup/startup_CH573.S:33
    .word   0
        j   SW_Handler                 /* SW Handler */
20003838:	05e0006f          	j	20003896 <SW_Handler>
2000383c:	0000                	unimp
2000383e:	0000                	unimp
F:\文档\串口助手\ProtoThread\ProtoThread-Templates-main\CH573_PT_Template\obj/../Core/Startup/startup_CH573.S:36
    .word   0
    /* External Interrupts */
        j   TMR0_IRQHandler            /* 0:  TMR0 */
20003840:	0580006f          	j	20003898 <TMR0_IRQHandler>
F:\文档\串口助手\ProtoThread\ProtoThread-Templates-main\CH573_PT_Template\obj/../Core/Startup/startup_CH573.S:37
        j   GPIOA_IRQHandler           /* GPIOA */
20003844:	0560006f          	j	2000389a <GPIOA_IRQHandler>
F:\文档\串口助手\ProtoThread\ProtoThread-Templates-main\CH573_PT_Template\obj/../Core/Startup/startup_CH573.S:38
        j   GPIOB_IRQHandler           /* GPIOB */
20003848:	0540006f          	j	2000389c <GPIOB_IRQHandler>
F:\文档\串口助手\ProtoThread\ProtoThread-Templates-main\CH573_PT_Template\obj/../Core/Startup/startup_CH573.S:39
        j   SPI0_IRQHandler            /* SPI0 */
2000384c:	0520006f          	j	2000389e <SPI0_IRQHandler>
F:\文档\串口助手\ProtoThread\ProtoThread-Templates-main\CH573_PT_Template\obj/../Core/Startup/startup_CH573.S:40
        j   BB_IRQHandler              /* BLEB */
20003850:	0500006f          	j	200038a0 <BB_IRQHandler>
F:\文档\串口助手\ProtoThread\ProtoThread-Templates-main\CH573_PT_Template\obj/../Core/Startup/startup_CH573.S:41
        j   LLE_IRQHandler             /* BLEL */
20003854:	04e0006f          	j	200038a2 <LLE_IRQHandler>
F:\文档\串口助手\ProtoThread\ProtoThread-Templates-main\CH573_PT_Template\obj/../Core/Startup/startup_CH573.S:42
        j   USB_IRQHandler             /* USB */
20003858:	04c0006f          	j	200038a4 <USB_IRQHandler>
2000385c:	0000                	unimp
2000385e:	0000                	unimp
F:\文档\串口助手\ProtoThread\ProtoThread-Templates-main\CH573_PT_Template\obj/../Core/Startup/startup_CH573.S:44
        .word   0
        j   TMR1_IRQHandler            /* TMR1 */
20003860:	0460006f          	j	200038a6 <TMR1_IRQHandler>
F:\文档\串口助手\ProtoThread\ProtoThread-Templates-main\CH573_PT_Template\obj/../Core/Startup/startup_CH573.S:45
        j   TMR2_IRQHandler            /* TMR2 */
20003864:	0440006f          	j	200038a8 <TMR2_IRQHandler>
F:\文档\串口助手\ProtoThread\ProtoThread-Templates-main\CH573_PT_Template\obj/../Core/Startup/startup_CH573.S:46
        j   UART0_IRQHandler           /* UART0 */
20003868:	0420006f          	j	200038aa <UART0_IRQHandler>
F:\文档\串口助手\ProtoThread\ProtoThread-Templates-main\CH573_PT_Template\obj/../Core/Startup/startup_CH573.S:47
        j   UART1_IRQHandler           /* UART1 */
2000386c:	0400006f          	j	200038ac <UART1_IRQHandler>
F:\文档\串口助手\ProtoThread\ProtoThread-Templates-main\CH573_PT_Template\obj/../Core/Startup/startup_CH573.S:48
        j   RTC_IRQHandler             /* RTC */
20003870:	42c0006f          	j	20003c9c <RTC_IRQHandler>
F:\文档\串口助手\ProtoThread\ProtoThread-Templates-main\CH573_PT_Template\obj/../Core/Startup/startup_CH573.S:49
        j   ADC_IRQHandler             /* ADC */
20003874:	03c0006f          	j	200038b0 <ADC_IRQHandler>
20003878:	0000                	unimp
2000387a:	0000                	unimp
F:\文档\串口助手\ProtoThread\ProtoThread-Templates-main\CH573_PT_Template\obj/../Core/Startup/startup_CH573.S:51
        .word   0
        j   PWMX_IRQHandler            /* PWMX */
2000387c:	0360006f          	j	200038b2 <PWMX_IRQHandler>
F:\文档\串口助手\ProtoThread\ProtoThread-Templates-main\CH573_PT_Template\obj/../Core/Startup/startup_CH573.S:52
        j   TMR3_IRQHandler            /* TMR3 */
20003880:	0340006f          	j	200038b4 <TMR3_IRQHandler>
F:\文档\串口助手\ProtoThread\ProtoThread-Templates-main\CH573_PT_Template\obj/../Core/Startup/startup_CH573.S:53
        j   UART2_IRQHandler           /* UART2 */
20003884:	0320006f          	j	200038b6 <UART2_IRQHandler>
F:\文档\串口助手\ProtoThread\ProtoThread-Templates-main\CH573_PT_Template\obj/../Core/Startup/startup_CH573.S:54
        j   UART3_IRQHandler           /* UART3 */
20003888:	0300006f          	j	200038b8 <UART3_IRQHandler>
F:\文档\串口助手\ProtoThread\ProtoThread-Templates-main\CH573_PT_Template\obj/../Core/Startup/startup_CH573.S:55
        j   WDOG_BAT_IRQHandler        /* WDOG_BAT */
2000388c:	02e0006f          	j	200038ba <WDOG_BAT_IRQHandler>

20003890 <NMI_Handler>:
NMI_Handler():
F:\文档\串口助手\ProtoThread\ProtoThread-Templates-main\CH573_PT_Template\obj/../Core/Startup/startup_CH573.S:83
    .weak   TMR3_IRQHandler
    .weak   UART2_IRQHandler
    .weak   UART3_IRQHandler
    .weak   WDOG_BAT_IRQHandler

NMI_Handler:  1:  j 1b
20003890:	a001                	j	20003890 <NMI_Handler>
F:\文档\串口助手\ProtoThread\ProtoThread-Templates-main\CH573_PT_Template\obj/../Core/Startup/startup_CH573.S:84
HardFault_Handler:  1:  j 1b
20003892:	a001                	j	20003892 <NMI_Handler+0x2>
F:\文档\串口助手\ProtoThread\ProtoThread-Templates-main\CH573_PT_Template\obj/../Core/Startup/startup_CH573.S:85
SysTick_Handler:  1:  j 1b
20003894:	a001                	j	20003894 <NMI_Handler+0x4>

20003896 <SW_Handler>:
SW_Handler():
F:\文档\串口助手\ProtoThread\ProtoThread-Templates-main\CH573_PT_Template\obj/../Core/Startup/startup_CH573.S:86
SW_Handler:  1:  j 1b
20003896:	a001                	j	20003896 <SW_Handler>

20003898 <TMR0_IRQHandler>:
TMR0_IRQHandler():
F:\文档\串口助手\ProtoThread\ProtoThread-Templates-main\CH573_PT_Template\obj/../Core/Startup/startup_CH573.S:87
TMR0_IRQHandler:  1:  j 1b
20003898:	a001                	j	20003898 <TMR0_IRQHandler>

2000389a <GPIOA_IRQHandler>:
GPIOA_IRQHandler():
F:\文档\串口助手\ProtoThread\ProtoThread-Templates-main\CH573_PT_Template\obj/../Core/Startup/startup_CH573.S:88
GPIOA_IRQHandler:  1:  j 1b
2000389a:	a001                	j	2000389a <GPIOA_IRQHandler>

2000389c <GPIOB_IRQHandler>:
GPIOB_IRQHandler():
F:\文档\串口助手\ProtoThread\ProtoThread-Templates-main\CH573_PT_Template\obj/../Core/Startup/startup_CH573.S:89
GPIOB_IRQHandler:  1:  j 1b
2000389c:	a001                	j	2000389c <GPIOB_IRQHandler>

2000389e <SPI0_IRQHandler>:
SPI0_IRQHandler():
F:\文档\串口助手\ProtoThread\ProtoThread-Templates-main\CH573_PT_Template\obj/../Core/Startup/startup_CH573.S:90
SPI0_IRQHandler:  1:  j 1b
2000389e:	a001                	j	2000389e <SPI0_IRQHandler>

200038a0 <BB_IRQHandler>:
BB_IRQHandler():
F:\文档\串口助手\ProtoThread\ProtoThread-Templates-main\CH573_PT_Template\obj/../Core/Startup/startup_CH573.S:91
BB_IRQHandler:  1:  j 1b
200038a0:	a001                	j	200038a0 <BB_IRQHandler>

200038a2 <LLE_IRQHandler>:
LLE_IRQHandler():
F:\文档\串口助手\ProtoThread\ProtoThread-Templates-main\CH573_PT_Template\obj/../Core/Startup/startup_CH573.S:92
LLE_IRQHandler:  1:  j 1b
200038a2:	a001                	j	200038a2 <LLE_IRQHandler>

200038a4 <USB_IRQHandler>:
USB_IRQHandler():
F:\文档\串口助手\ProtoThread\ProtoThread-Templates-main\CH573_PT_Template\obj/../Core/Startup/startup_CH573.S:93
USB_IRQHandler:  1:  j 1b
200038a4:	a001                	j	200038a4 <USB_IRQHandler>

200038a6 <TMR1_IRQHandler>:
TMR1_IRQHandler():
F:\文档\串口助手\ProtoThread\ProtoThread-Templates-main\CH573_PT_Template\obj/../Core/Startup/startup_CH573.S:94
TMR1_IRQHandler:  1:  j 1b
200038a6:	a001                	j	200038a6 <TMR1_IRQHandler>

200038a8 <TMR2_IRQHandler>:
TMR2_IRQHandler():
F:\文档\串口助手\ProtoThread\ProtoThread-Templates-main\CH573_PT_Template\obj/../Core/Startup/startup_CH573.S:95
TMR2_IRQHandler:  1:  j 1b
200038a8:	a001                	j	200038a8 <TMR2_IRQHandler>

200038aa <UART0_IRQHandler>:
UART0_IRQHandler():
F:\文档\串口助手\ProtoThread\ProtoThread-Templates-main\CH573_PT_Template\obj/../Core/Startup/startup_CH573.S:96
UART0_IRQHandler:  1:  j 1b
200038aa:	a001                	j	200038aa <UART0_IRQHandler>

200038ac <UART1_IRQHandler>:
UART1_IRQHandler():
F:\文档\串口助手\ProtoThread\ProtoThread-Templates-main\CH573_PT_Template\obj/../Core/Startup/startup_CH573.S:97
UART1_IRQHandler:  1:  j 1b
200038ac:	a001                	j	200038ac <UART1_IRQHandler>
F:\文档\串口助手\ProtoThread\ProtoThread-Templates-main\CH573_PT_Template\obj/../Core/Startup/startup_CH573.S:98
RTC_IRQHandler:  1:  j 1b
200038ae:	a001                	j	200038ae <UART1_IRQHandler+0x2>

200038b0 <ADC_IRQHandler>:
ADC_IRQHandler():
F:\文档\串口助手\ProtoThread\ProtoThread-Templates-main\CH573_PT_Template\obj/../Core/Startup/startup_CH573.S:99
ADC_IRQHandler:  1:  j 1b
200038b0:	a001                	j	200038b0 <ADC_IRQHandler>

200038b2 <PWMX_IRQHandler>:
PWMX_IRQHandler():
F:\文档\串口助手\ProtoThread\ProtoThread-Templates-main\CH573_PT_Template\obj/../Core/Startup/startup_CH573.S:100
PWMX_IRQHandler:  1:  j 1b
200038b2:	a001                	j	200038b2 <PWMX_IRQHandler>

200038b4 <TMR3_IRQHandler>:
TMR3_IRQHandler():
F:\文档\串口助手\ProtoThread\ProtoThread-Templates-main\CH573_PT_Template\obj/../Core/Startup/startup_CH573.S:101
TMR3_IRQHandler:  1:  j 1b
200038b4:	a001                	j	200038b4 <TMR3_IRQHandler>

200038b6 <UART2_IRQHandler>:
UART2_IRQHandler():
F:\文档\串口助手\ProtoThread\ProtoThread-Templates-main\CH573_PT_Template\obj/../Core/Startup/startup_CH573.S:102
UART2_IRQHandler:  1:  j 1b
200038b6:	a001                	j	200038b6 <UART2_IRQHandler>

200038b8 <UART3_IRQHandler>:
UART3_IRQHandler():
F:\文档\串口助手\ProtoThread\ProtoThread-Templates-main\CH573_PT_Template\obj/../Core/Startup/startup_CH573.S:103
UART3_IRQHandler:  1:  j 1b
200038b8:	a001                	j	200038b8 <UART3_IRQHandler>

200038ba <WDOG_BAT_IRQHandler>:
WDOG_BAT_IRQHandler():
F:\文档\串口助手\ProtoThread\ProtoThread-Templates-main\CH573_PT_Template\obj/../Core/Startup/startup_CH573.S:104
WDOG_BAT_IRQHandler:  1:  j 1b
200038ba:	a001                	j	200038ba <WDOG_BAT_IRQHandler>

200038bc <protothread_clock_time>:
protothread_clock_time():
F:\文档\串口助手\ProtoThread\ProtoThread-Templates-main\CH573_PT_Template\obj/../OS/ProtoThread-Core/transplant_ports/pt_ports.c:64
 */
__attribute__((section(".highcode")))
clock_time_t protothread_clock_time(void)
{
  return ptTicks;
}
200038bc:	80c18793          	addi	a5,gp,-2036 # 200040f4 <_edata>
200038c0:	4388                	lw	a0,0(a5)
200038c2:	8082                	ret

200038c4 <SysTick_Handler>:
SysTick_Handler():
F:\文档\串口助手\ProtoThread\ProtoThread-Templates-main\CH573_PT_Template\obj/../OS/ProtoThread-Core/transplant_ports/pt_ports.c:70

__attribute__((interrupt("WCH-Interrupt-fast")))
__attribute__((section(".highcode")))
void SysTick_Handler(void)
{
  if( SysTick->CNTFG & 0x00000002 ){
200038c4:	e000f7b7          	lui	a5,0xe000f
200038c8:	4bdc                	lw	a5,20(a5)
200038ca:	8b89                	andi	a5,a5,2
200038cc:	cb8d                	beqz	a5,200038fe <SysTick_Handler+0x3a>
F:\文档\串口助手\ProtoThread\ProtoThread-Templates-main\CH573_PT_Template\obj/../OS/ProtoThread-Core/transplant_ports/pt_ports.c:69
{
200038ce:	1141                	addi	sp,sp,-16
200038d0:	c622                	sw	s0,12(sp)
F:\文档\串口助手\ProtoThread\ProtoThread-Templates-main\CH573_PT_Template\obj/../OS/ProtoThread-Core/transplant_ports/pt_ports.c:71
    ptTicks++;
200038d2:	80c18413          	addi	s0,gp,-2036 # 200040f4 <_edata>
200038d6:	401c                	lw	a5,0(s0)
200038d8:	0785                	addi	a5,a5,1
200038da:	80f1a623          	sw	a5,-2036(gp) # 200040f4 <_edata>
F:\文档\串口助手\ProtoThread\ProtoThread-Templates-main\CH573_PT_Template\obj/../OS/ProtoThread-Core/transplant_ports/pt_ports.c:72
    if(etimer_pending() && etimer_next_expiration_time()<= ptTicks)
200038de:	203d                	jal	2000390c <etimer_pending>
200038e0:	c511                	beqz	a0,200038ec <SysTick_Handler+0x28>
F:\文档\串口助手\ProtoThread\ProtoThread-Templates-main\CH573_PT_Template\obj/../OS/ProtoThread-Core/transplant_ports/pt_ports.c:72 (discriminator 1)
200038e2:	281d                	jal	20003918 <etimer_next_expiration_time>
200038e4:	401c                	lw	a5,0(s0)
200038e6:	00a7e363          	bltu	a5,a0,200038ec <SysTick_Handler+0x28>
F:\文档\串口助手\ProtoThread\ProtoThread-Templates-main\CH573_PT_Template\obj/../OS/ProtoThread-Core/transplant_ports/pt_ports.c:74
    {
      etimer_request_poll();
200038ea:	2821                	jal	20003902 <etimer_request_poll>
F:\文档\串口助手\ProtoThread\ProtoThread-Templates-main\CH573_PT_Template\obj/../OS/ProtoThread-Core/transplant_ports/pt_ports.c:76
    }
    SysTick->CNTFG &= ~0x00000002;
200038ec:	e000f737          	lui	a4,0xe000f
200038f0:	4b5c                	lw	a5,20(a4)
F:\文档\串口助手\ProtoThread\ProtoThread-Templates-main\CH573_PT_Template\obj/../OS/ProtoThread-Core/transplant_ports/pt_ports.c:78
  }
}
200038f2:	4432                	lw	s0,12(sp)
F:\文档\串口助手\ProtoThread\ProtoThread-Templates-main\CH573_PT_Template\obj/../OS/ProtoThread-Core/transplant_ports/pt_ports.c:76
    SysTick->CNTFG &= ~0x00000002;
200038f4:	9bf5                	andi	a5,a5,-3
200038f6:	cb5c                	sw	a5,20(a4)
F:\文档\串口助手\ProtoThread\ProtoThread-Templates-main\CH573_PT_Template\obj/../OS/ProtoThread-Core/transplant_ports/pt_ports.c:78
}
200038f8:	0141                	addi	sp,sp,16
200038fa:	30200073          	mret
200038fe:	30200073          	mret

20003902 <etimer_request_poll>:
etimer_request_poll():
F:\文档\串口助手\ProtoThread\ProtoThread-Templates-main\CH573_PT_Template\obj/../OS/ProtoThread-Core/sys/etimer.c:147
}
/*---------------------------------------------------------------------------*/
__attribute__((section(".highcode"))) void
etimer_request_poll(void)
{
  process_poll(&etimer_process);
20003902:	00000517          	auipc	a0,0x0
20003906:	77a50513          	addi	a0,a0,1914 # 2000407c <_highcode_vma_end>
2000390a:	aafd                	j	20003b08 <process_poll>

2000390c <etimer_pending>:
etimer_pending():
F:\文档\串口助手\ProtoThread\ProtoThread-Templates-main\CH573_PT_Template\obj/../OS/ProtoThread-Core/sys/etimer.c:233
}
/*---------------------------------------------------------------------------*/
__attribute__((section(".highcode"))) int
etimer_pending(void)
{
  return timerlist != NULL;
2000390c:	81418793          	addi	a5,gp,-2028 # 200040fc <timerlist>
20003910:	4388                	lw	a0,0(a5)
F:\文档\串口助手\ProtoThread\ProtoThread-Templates-main\CH573_PT_Template\obj/../OS/ProtoThread-Core/sys/etimer.c:234
}
20003912:	00a03533          	snez	a0,a0
20003916:	8082                	ret

20003918 <etimer_next_expiration_time>:
etimer_next_expiration_time():
F:\文档\串口助手\ProtoThread\ProtoThread-Templates-main\CH573_PT_Template\obj/../OS/ProtoThread-Core/sys/etimer.c:238
/*---------------------------------------------------------------------------*/
__attribute__((section(".highcode"))) clock_time_t
etimer_next_expiration_time(void)
{
20003918:	1141                	addi	sp,sp,-16
2000391a:	c606                	sw	ra,12(sp)
F:\文档\串口助手\ProtoThread\ProtoThread-Templates-main\CH573_PT_Template\obj/../OS/ProtoThread-Core/sys/etimer.c:239
  return etimer_pending() ? next_expiration : 0;
2000391c:	3fc5                	jal	2000390c <etimer_pending>
2000391e:	4781                	li	a5,0
20003920:	c501                	beqz	a0,20003928 <etimer_next_expiration_time+0x10>
F:\文档\串口助手\ProtoThread\ProtoThread-Templates-main\CH573_PT_Template\obj/../OS/ProtoThread-Core/sys/etimer.c:239 (discriminator 1)
20003922:	81018793          	addi	a5,gp,-2032 # 200040f8 <next_expiration>
20003926:	439c                	lw	a5,0(a5)
F:\文档\串口助手\ProtoThread\ProtoThread-Templates-main\CH573_PT_Template\obj/../OS/ProtoThread-Core/sys/etimer.c:240
}
20003928:	40b2                	lw	ra,12(sp)
2000392a:	853e                	mv	a0,a5
2000392c:	0141                	addi	sp,sp,16
2000392e:	8082                	ret

20003930 <call_process>:
call_process():
F:\文档\串口助手\ProtoThread\ProtoThread-Templates-main\CH573_PT_Template\obj/../OS/ProtoThread-Core/sys/process.c:181
  if(p->state == PROCESS_STATE_CALLED) {
    printf("process: process '%s' called again with event %d\n", PROCESS_NAME_STRING(p), ev);
  }
#endif /* PT_DEBUG */

  if((p->state & PROCESS_STATE_RUNNING) &&
20003930:	00a54783          	lbu	a5,10(a0)
20003934:	8b85                	andi	a5,a5,1
20003936:	c7b1                	beqz	a5,20003982 <call_process+0x52>
F:\文档\串口助手\ProtoThread\ProtoThread-Templates-main\CH573_PT_Template\obj/../OS/ProtoThread-Core/sys/process.c:182 (discriminator 1)
     p->thread != NULL) {
20003938:	415c                	lw	a5,4(a0)
F:\文档\串口助手\ProtoThread\ProtoThread-Templates-main\CH573_PT_Template\obj/../OS/ProtoThread-Core/sys/process.c:181 (discriminator 1)
  if((p->state & PROCESS_STATE_RUNNING) &&
2000393a:	c7a1                	beqz	a5,20003982 <call_process+0x52>
F:\文档\串口助手\ProtoThread\ProtoThread-Templates-main\CH573_PT_Template\obj/../OS/ProtoThread-Core/sys/process.c:172
{
2000393c:	1141                	addi	sp,sp,-16
F:\文档\串口助手\ProtoThread\ProtoThread-Templates-main\CH573_PT_Template\obj/../OS/ProtoThread-Core/sys/process.c:184
    PRINTF("process: calling process '%s' with event %d\n", PROCESS_NAME_STRING(p), ev);
    process_current = p;
2000393e:	80a1ae23          	sw	a0,-2020(gp) # 20004104 <process_current>
F:\文档\串口助手\ProtoThread\ProtoThread-Templates-main\CH573_PT_Template\obj/../OS/ProtoThread-Core/sys/process.c:172
{
20003942:	c422                	sw	s0,8(sp)
20003944:	c226                	sw	s1,4(sp)
20003946:	c606                	sw	ra,12(sp)
F:\文档\串口助手\ProtoThread\ProtoThread-Templates-main\CH573_PT_Template\obj/../OS/ProtoThread-Core/sys/process.c:185
    p->state = PROCESS_STATE_CALLED;
20003948:	4709                	li	a4,2
2000394a:	00e50523          	sb	a4,10(a0)
2000394e:	842a                	mv	s0,a0
F:\文档\串口助手\ProtoThread\ProtoThread-Templates-main\CH573_PT_Template\obj/../OS/ProtoThread-Core/sys/process.c:186
    ret = p->thread(&p->pt, ev, data);
20003950:	0521                	addi	a0,a0,8
20003952:	84ae                	mv	s1,a1
20003954:	9782                	jalr	a5
F:\文档\串口助手\ProtoThread\ProtoThread-Templates-main\CH573_PT_Template\obj/../OS/ProtoThread-Core/sys/process.c:187
    if(ret == PT_EXITED ||
20003956:	1579                	addi	a0,a0,-2
20003958:	4785                	li	a5,1
2000395a:	00a7f663          	bgeu	a5,a0,20003966 <call_process+0x36>
F:\文档\串口助手\ProtoThread\ProtoThread-Templates-main\CH573_PT_Template\obj/../OS/ProtoThread-Core/sys/process.c:188
       ret == PT_ENDED ||
2000395e:	08300713          	li	a4,131
20003962:	00e49963          	bne	s1,a4,20003974 <call_process+0x44>
F:\文档\串口助手\ProtoThread\ProtoThread-Templates-main\CH573_PT_Template\obj/../OS/ProtoThread-Core/sys/process.c:190
       ev == PROCESS_EVENT_EXIT) {
      exit_process(p, p);
20003966:	85a2                	mv	a1,s0
20003968:	8522                	mv	a0,s0
F:\文档\串口助手\ProtoThread\ProtoThread-Templates-main\CH573_PT_Template\obj/../OS/ProtoThread-Core/sys/process.c:195
    } else {
      p->state = PROCESS_STATE_RUNNING;
    }
  }
}
2000396a:	4422                	lw	s0,8(sp)
2000396c:	40b2                	lw	ra,12(sp)
2000396e:	4492                	lw	s1,4(sp)
20003970:	0141                	addi	sp,sp,16
F:\文档\串口助手\ProtoThread\ProtoThread-Templates-main\CH573_PT_Template\obj/../OS/ProtoThread-Core/sys/process.c:190
      exit_process(p, p);
20003972:	a809                	j	20003984 <exit_process>
F:\文档\串口助手\ProtoThread\ProtoThread-Templates-main\CH573_PT_Template\obj/../OS/ProtoThread-Core/sys/process.c:192
      p->state = PROCESS_STATE_RUNNING;
20003974:	00f40523          	sb	a5,10(s0)
F:\文档\串口助手\ProtoThread\ProtoThread-Templates-main\CH573_PT_Template\obj/../OS/ProtoThread-Core/sys/process.c:195
}
20003978:	40b2                	lw	ra,12(sp)
2000397a:	4422                	lw	s0,8(sp)
2000397c:	4492                	lw	s1,4(sp)
2000397e:	0141                	addi	sp,sp,16
20003980:	8082                	ret
20003982:	8082                	ret

20003984 <exit_process>:
exit_process():
F:\文档\串口助手\ProtoThread\ProtoThread-Templates-main\CH573_PT_Template\obj/../OS/ProtoThread-Core/sys/process.c:121
{
20003984:	1101                	addi	sp,sp,-32
F:\文档\串口助手\ProtoThread\ProtoThread-Templates-main\CH573_PT_Template\obj/../OS/ProtoThread-Core/sys/process.c:129
  for(q = process_list; q != p && q != NULL; q = q->next);
20003986:	82018793          	addi	a5,gp,-2016 # 20004108 <process_list>
F:\文档\串口助手\ProtoThread\ProtoThread-Templates-main\CH573_PT_Template\obj/../OS/ProtoThread-Core/sys/process.c:121
{
2000398a:	ca26                	sw	s1,20(sp)
F:\文档\串口助手\ProtoThread\ProtoThread-Templates-main\CH573_PT_Template\obj/../OS/ProtoThread-Core/sys/process.c:129
  for(q = process_list; q != p && q != NULL; q = q->next);
2000398c:	4384                	lw	s1,0(a5)
F:\文档\串口助手\ProtoThread\ProtoThread-Templates-main\CH573_PT_Template\obj/../OS/ProtoThread-Core/sys/process.c:121
{
2000398e:	c84a                	sw	s2,16(sp)
20003990:	ce06                	sw	ra,28(sp)
20003992:	cc22                	sw	s0,24(sp)
20003994:	c64e                	sw	s3,12(sp)
20003996:	c452                	sw	s4,8(sp)
F:\文档\串口助手\ProtoThread\ProtoThread-Templates-main\CH573_PT_Template\obj/../OS/ProtoThread-Core/sys/process.c:129
  for(q = process_list; q != p && q != NULL; q = q->next);
20003998:	8726                	mv	a4,s1
2000399a:	893e                	mv	s2,a5
F:\文档\串口助手\ProtoThread\ProtoThread-Templates-main\CH573_PT_Template\obj/../OS/ProtoThread-Core/sys/process.c:129 (discriminator 1)
2000399c:	00a70d63          	beq	a4,a0,200039b6 <exit_process+0x32>
F:\文档\串口助手\ProtoThread\ProtoThread-Templates-main\CH573_PT_Template\obj/../OS/ProtoThread-Core/sys/process.c:129 (discriminator 3)
200039a0:	eb09                	bnez	a4,200039b2 <exit_process+0x2e>
F:\文档\串口助手\ProtoThread\ProtoThread-Templates-main\CH573_PT_Template\obj/../OS/ProtoThread-Core/sys/process.c:168
}
200039a2:	40f2                	lw	ra,28(sp)
200039a4:	4462                	lw	s0,24(sp)
200039a6:	44d2                	lw	s1,20(sp)
200039a8:	4942                	lw	s2,16(sp)
200039aa:	49b2                	lw	s3,12(sp)
200039ac:	4a22                	lw	s4,8(sp)
200039ae:	6105                	addi	sp,sp,32
200039b0:	8082                	ret
F:\文档\串口助手\ProtoThread\ProtoThread-Templates-main\CH573_PT_Template\obj/../OS/ProtoThread-Core/sys/process.c:129 (discriminator 4)
  for(q = process_list; q != p && q != NULL; q = q->next);
200039b2:	4318                	lw	a4,0(a4)
200039b4:	b7e5                	j	2000399c <exit_process+0x18>
F:\文档\串口助手\ProtoThread\ProtoThread-Templates-main\CH573_PT_Template\obj/../OS/ProtoThread-Core/sys/process.c:130
  if(q == NULL) {
200039b6:	d575                	beqz	a0,200039a2 <exit_process+0x1e>
F:\文档\串口助手\ProtoThread\ProtoThread-Templates-main\CH573_PT_Template\obj/../OS/ProtoThread-Core/sys/process.c:123
  struct process *old_current = process_current;
200039b8:	81c18793          	addi	a5,gp,-2020 # 20004104 <process_current>
200039bc:	0007aa03          	lw	s4,0(a5) # e000f000 <_eusrstack+0xc0007000>
F:\文档\串口助手\ProtoThread\ProtoThread-Templates-main\CH573_PT_Template\obj/../OS/ProtoThread-Core/sys/process.c:134
  if(process_is_running(p)) {
200039c0:	00a54783          	lbu	a5,10(a0)
200039c4:	89ae                	mv	s3,a1
200039c6:	842a                	mv	s0,a0
200039c8:	c385                	beqz	a5,200039e8 <exit_process+0x64>
F:\文档\串口助手\ProtoThread\ProtoThread-Templates-main\CH573_PT_Template\obj/../OS/ProtoThread-Core/sys/process.c:136
    p->state = PROCESS_STATE_NONE;
200039ca:	00050523          	sb	zero,10(a0)
F:\文档\串口助手\ProtoThread\ProtoThread-Templates-main\CH573_PT_Template\obj/../OS/ProtoThread-Core/sys/process.c:143 (discriminator 1)
    for(q = process_list; q != NULL; q = q->next) {
200039ce:	e49d                	bnez	s1,200039fc <exit_process+0x78>
F:\文档\串口助手\ProtoThread\ProtoThread-Templates-main\CH573_PT_Template\obj/../OS/ProtoThread-Core/sys/process.c:149
    if(p->thread != NULL && p != fromprocess) {
200039d0:	405c                	lw	a5,4(s0)
200039d2:	cb99                	beqz	a5,200039e8 <exit_process+0x64>
F:\文档\串口助手\ProtoThread\ProtoThread-Templates-main\CH573_PT_Template\obj/../OS/ProtoThread-Core/sys/process.c:149 (discriminator 1)
200039d4:	01340a63          	beq	s0,s3,200039e8 <exit_process+0x64>
F:\文档\串口助手\ProtoThread\ProtoThread-Templates-main\CH573_PT_Template\obj/../OS/ProtoThread-Core/sys/process.c:151
      process_current = p;
200039d8:	8081ae23          	sw	s0,-2020(gp) # 20004104 <process_current>
F:\文档\串口助手\ProtoThread\ProtoThread-Templates-main\CH573_PT_Template\obj/../OS/ProtoThread-Core/sys/process.c:152
      p->thread(&p->pt, PROCESS_EVENT_EXIT, NULL);
200039dc:	4601                	li	a2,0
200039de:	08300593          	li	a1,131
200039e2:	00840513          	addi	a0,s0,8
200039e6:	9782                	jalr	a5
F:\文档\串口助手\ProtoThread\ProtoThread-Templates-main\CH573_PT_Template\obj/../OS/ProtoThread-Core/sys/process.c:156
  if(p == process_list) {
200039e8:	00092783          	lw	a5,0(s2)
200039ec:	02879263          	bne	a5,s0,20003a10 <exit_process+0x8c>
F:\文档\串口助手\ProtoThread\ProtoThread-Templates-main\CH573_PT_Template\obj/../OS/ProtoThread-Core/sys/process.c:157
    process_list = process_list->next;
200039f0:	401c                	lw	a5,0(s0)
200039f2:	82f1a023          	sw	a5,-2016(gp) # 20004108 <process_list>
F:\文档\串口助手\ProtoThread\ProtoThread-Templates-main\CH573_PT_Template\obj/../OS/ProtoThread-Core/sys/process.c:167
  process_current = old_current;
200039f6:	8141ae23          	sw	s4,-2020(gp) # 20004104 <process_current>
200039fa:	b765                	j	200039a2 <exit_process+0x1e>
F:\文档\串口助手\ProtoThread\ProtoThread-Templates-main\CH573_PT_Template\obj/../OS/ProtoThread-Core/sys/process.c:144
      if(p != q) {
200039fc:	00848763          	beq	s1,s0,20003a0a <exit_process+0x86>
F:\文档\串口助手\ProtoThread\ProtoThread-Templates-main\CH573_PT_Template\obj/../OS/ProtoThread-Core/sys/process.c:145
        call_process(q, PROCESS_EVENT_EXITED, (process_data_t)p);
20003a00:	8622                	mv	a2,s0
20003a02:	08700593          	li	a1,135
20003a06:	8526                	mv	a0,s1
20003a08:	3725                	jal	20003930 <call_process>
F:\文档\串口助手\ProtoThread\ProtoThread-Templates-main\CH573_PT_Template\obj/../OS/ProtoThread-Core/sys/process.c:143 (discriminator 2)
    for(q = process_list; q != NULL; q = q->next) {
20003a0a:	4084                	lw	s1,0(s1)
20003a0c:	b7c9                	j	200039ce <exit_process+0x4a>
20003a0e:	87ba                	mv	a5,a4
F:\文档\串口助手\ProtoThread\ProtoThread-Templates-main\CH573_PT_Template\obj/../OS/ProtoThread-Core/sys/process.c:159 (discriminator 1)
    for(q = process_list; q != NULL; q = q->next) {
20003a10:	d3fd                	beqz	a5,200039f6 <exit_process+0x72>
F:\文档\串口助手\ProtoThread\ProtoThread-Templates-main\CH573_PT_Template\obj/../OS/ProtoThread-Core/sys/process.c:160
      if(q->next == p) {
20003a12:	4398                	lw	a4,0(a5)
20003a14:	fe871de3          	bne	a4,s0,20003a0e <exit_process+0x8a>
F:\文档\串口助手\ProtoThread\ProtoThread-Templates-main\CH573_PT_Template\obj/../OS/ProtoThread-Core/sys/process.c:161
        q->next = p->next;
20003a18:	4018                	lw	a4,0(s0)
20003a1a:	c398                	sw	a4,0(a5)
F:\文档\串口助手\ProtoThread\ProtoThread-Templates-main\CH573_PT_Template\obj/../OS/ProtoThread-Core/sys/process.c:162
        break;
20003a1c:	bfe9                	j	200039f6 <exit_process+0x72>

20003a1e <do_poll>:
do_poll():
F:\文档\串口助手\ProtoThread\ProtoThread-Templates-main\CH573_PT_Template\obj/../OS/ProtoThread-Core/sys/process.c:222
__attribute__((section(".highcode"))) static void
do_poll(void)
{
  struct process *p;

  poll_requested = 0;
20003a1e:	80018d23          	sb	zero,-2022(gp) # 20004102 <poll_requested>
F:\文档\串口助手\ProtoThread\ProtoThread-Templates-main\CH573_PT_Template\obj/../OS/ProtoThread-Core/sys/process.c:219
{
20003a22:	1141                	addi	sp,sp,-16
F:\文档\串口助手\ProtoThread\ProtoThread-Templates-main\CH573_PT_Template\obj/../OS/ProtoThread-Core/sys/process.c:224
  /* Call the processes that needs to be polled. */
  for(p = process_list; p != NULL; p = p->next) {
20003a24:	82018793          	addi	a5,gp,-2016 # 20004108 <process_list>
F:\文档\串口助手\ProtoThread\ProtoThread-Templates-main\CH573_PT_Template\obj/../OS/ProtoThread-Core/sys/process.c:219
{
20003a28:	c422                	sw	s0,8(sp)
F:\文档\串口助手\ProtoThread\ProtoThread-Templates-main\CH573_PT_Template\obj/../OS/ProtoThread-Core/sys/process.c:224
  for(p = process_list; p != NULL; p = p->next) {
20003a2a:	4380                	lw	s0,0(a5)
F:\文档\串口助手\ProtoThread\ProtoThread-Templates-main\CH573_PT_Template\obj/../OS/ProtoThread-Core/sys/process.c:219
{
20003a2c:	c226                	sw	s1,4(sp)
20003a2e:	c606                	sw	ra,12(sp)
F:\文档\串口助手\ProtoThread\ProtoThread-Templates-main\CH573_PT_Template\obj/../OS/ProtoThread-Core/sys/process.c:226
    if(p->needspoll) {
      p->state = PROCESS_STATE_RUNNING;
20003a30:	4485                	li	s1,1
F:\文档\串口助手\ProtoThread\ProtoThread-Templates-main\CH573_PT_Template\obj/../OS/ProtoThread-Core/sys/process.c:224 (discriminator 1)
  for(p = process_list; p != NULL; p = p->next) {
20003a32:	e411                	bnez	s0,20003a3e <do_poll+0x20>
F:\文档\串口助手\ProtoThread\ProtoThread-Templates-main\CH573_PT_Template\obj/../OS/ProtoThread-Core/sys/process.c:231
      p->needspoll = 0;
      call_process(p, PROCESS_EVENT_POLL, NULL);
    }
  }
}
20003a34:	40b2                	lw	ra,12(sp)
20003a36:	4422                	lw	s0,8(sp)
20003a38:	4492                	lw	s1,4(sp)
20003a3a:	0141                	addi	sp,sp,16
20003a3c:	8082                	ret
F:\文档\串口助手\ProtoThread\ProtoThread-Templates-main\CH573_PT_Template\obj/../OS/ProtoThread-Core/sys/process.c:225
    if(p->needspoll) {
20003a3e:	00b44783          	lbu	a5,11(s0)
20003a42:	cb81                	beqz	a5,20003a52 <do_poll+0x34>
F:\文档\串口助手\ProtoThread\ProtoThread-Templates-main\CH573_PT_Template\obj/../OS/ProtoThread-Core/sys/process.c:226
      p->state = PROCESS_STATE_RUNNING;
20003a44:	00941523          	sh	s1,10(s0)
F:\文档\串口助手\ProtoThread\ProtoThread-Templates-main\CH573_PT_Template\obj/../OS/ProtoThread-Core/sys/process.c:228
      call_process(p, PROCESS_EVENT_POLL, NULL);
20003a48:	4601                	li	a2,0
20003a4a:	08200593          	li	a1,130
20003a4e:	8522                	mv	a0,s0
20003a50:	35c5                	jal	20003930 <call_process>
F:\文档\串口助手\ProtoThread\ProtoThread-Templates-main\CH573_PT_Template\obj/../OS/ProtoThread-Core/sys/process.c:224 (discriminator 2)
  for(p = process_list; p != NULL; p = p->next) {
20003a52:	4000                	lw	s0,0(s0)
20003a54:	bff9                	j	20003a32 <do_poll+0x14>

20003a56 <do_event>:
do_event():
F:\文档\串口助手\ProtoThread\ProtoThread-Templates-main\CH573_PT_Template\obj/../OS/ProtoThread-Core/sys/process.c:254
   * delivered to any of them. If so, we call the event handler
   * function for the process. We only process one event at a time and
   * call the poll handlers inbetween.
   */

  if(nevents > 0) {
20003a56:	8191c683          	lbu	a3,-2023(gp) # 20004101 <nevents>
20003a5a:	c6c9                	beqz	a3,20003ae4 <do_event+0x8e>
F:\文档\串口助手\ProtoThread\ProtoThread-Templates-main\CH573_PT_Template\obj/../OS/ProtoThread-Core/sys/process.c:257

    /* There are events that we should deliver. */
    ev = events[fevent].ev;
20003a5c:	8181c783          	lbu	a5,-2024(gp) # 20004100 <fevent>
20003a60:	4731                	li	a4,12
20003a62:	02e78633          	mul	a2,a5,a4
20003a66:	83418713          	addi	a4,gp,-1996 # 2000411c <events>
F:\文档\串口助手\ProtoThread\ProtoThread-Templates-main\CH573_PT_Template\obj/../OS/ProtoThread-Core/sys/process.c:240
{
20003a6a:	1101                	addi	sp,sp,-32
F:\文档\串口助手\ProtoThread\ProtoThread-Templates-main\CH573_PT_Template\obj/../OS/ProtoThread-Core/sys/process.c:264
    data = events[fevent].data;
    receiver = events[fevent].p;

    /* Since we have seen the new event, we move pointer upwards
       and decrease the number of events. */
    fevent = (fevent + 1) % PROCESS_CONF_NUMEVENTS;
20003a6c:	0785                	addi	a5,a5,1
F:\文档\串口助手\ProtoThread\ProtoThread-Templates-main\CH573_PT_Template\obj/../OS/ProtoThread-Core/sys/process.c:240
{
20003a6e:	c84a                	sw	s2,16(sp)
F:\文档\串口助手\ProtoThread\ProtoThread-Templates-main\CH573_PT_Template\obj/../OS/ProtoThread-Core/sys/process.c:264
    fevent = (fevent + 1) % PROCESS_CONF_NUMEVENTS;
20003a70:	8bfd                	andi	a5,a5,31
F:\文档\串口助手\ProtoThread\ProtoThread-Templates-main\CH573_PT_Template\obj/../OS/ProtoThread-Core/sys/process.c:240
{
20003a72:	ce06                	sw	ra,28(sp)
20003a74:	cc22                	sw	s0,24(sp)
20003a76:	ca26                	sw	s1,20(sp)
20003a78:	c64e                	sw	s3,12(sp)
F:\文档\串口助手\ProtoThread\ProtoThread-Templates-main\CH573_PT_Template\obj/../OS/ProtoThread-Core/sys/process.c:257
    ev = events[fevent].ev;
20003a7a:	9732                	add	a4,a4,a2
F:\文档\串口助手\ProtoThread\ProtoThread-Templates-main\CH573_PT_Template\obj/../OS/ProtoThread-Core/sys/process.c:260
    receiver = events[fevent].p;
20003a7c:	4708                	lw	a0,8(a4)
F:\文档\串口助手\ProtoThread\ProtoThread-Templates-main\CH573_PT_Template\obj/../OS/ProtoThread-Core/sys/process.c:265
    --nevents;
20003a7e:	16fd                	addi	a3,a3,-1
F:\文档\串口助手\ProtoThread\ProtoThread-Templates-main\CH573_PT_Template\obj/../OS/ProtoThread-Core/sys/process.c:257
    ev = events[fevent].ev;
20003a80:	00074483          	lbu	s1,0(a4) # e000f000 <_eusrstack+0xc0007000>
F:\文档\串口助手\ProtoThread\ProtoThread-Templates-main\CH573_PT_Template\obj/../OS/ProtoThread-Core/sys/process.c:259
    data = events[fevent].data;
20003a84:	00472903          	lw	s2,4(a4)
F:\文档\串口助手\ProtoThread\ProtoThread-Templates-main\CH573_PT_Template\obj/../OS/ProtoThread-Core/sys/process.c:264
    fevent = (fevent + 1) % PROCESS_CONF_NUMEVENTS;
20003a88:	80f18c23          	sb	a5,-2024(gp) # 20004100 <fevent>
F:\文档\串口助手\ProtoThread\ProtoThread-Templates-main\CH573_PT_Template\obj/../OS/ProtoThread-Core/sys/process.c:265
    --nevents;
20003a8c:	80d18ca3          	sb	a3,-2023(gp) # 20004101 <nevents>
F:\文档\串口助手\ProtoThread\ProtoThread-Templates-main\CH573_PT_Template\obj/../OS/ProtoThread-Core/sys/process.c:269

    /* If this is a broadcast event, we deliver it to all events, in
       order of their priority. */
    if(receiver == PROCESS_BROADCAST) {
20003a90:	e915                	bnez	a0,20003ac4 <do_event+0x6e>
F:\文档\串口助手\ProtoThread\ProtoThread-Templates-main\CH573_PT_Template\obj/../OS/ProtoThread-Core/sys/process.c:270
      for(p = process_list; p != NULL; p = p->next) {
20003a92:	82018793          	addi	a5,gp,-2016 # 20004108 <process_list>
20003a96:	4380                	lw	s0,0(a5)
F:\文档\串口助手\ProtoThread\ProtoThread-Templates-main\CH573_PT_Template\obj/../OS/ProtoThread-Core/sys/process.c:274

        /* If we have been requested to poll a process, we do this in
           between processing the broadcast event. */
        if(poll_requested) {
20003a98:	81a18993          	addi	s3,gp,-2022 # 20004102 <poll_requested>
F:\文档\串口助手\ProtoThread\ProtoThread-Templates-main\CH573_PT_Template\obj/../OS/ProtoThread-Core/sys/process.c:270 (discriminator 1)
      for(p = process_list; p != NULL; p = p->next) {
20003a9c:	e801                	bnez	s0,20003aac <do_event+0x56>
F:\文档\串口助手\ProtoThread\ProtoThread-Templates-main\CH573_PT_Template\obj/../OS/ProtoThread-Core/sys/process.c:292

      /* Make sure that the process actually is running. */
      call_process(receiver, ev, data);
    }
  }
}
20003a9e:	40f2                	lw	ra,28(sp)
20003aa0:	4462                	lw	s0,24(sp)
20003aa2:	44d2                	lw	s1,20(sp)
20003aa4:	4942                	lw	s2,16(sp)
20003aa6:	49b2                	lw	s3,12(sp)
20003aa8:	6105                	addi	sp,sp,32
20003aaa:	8082                	ret
F:\文档\串口助手\ProtoThread\ProtoThread-Templates-main\CH573_PT_Template\obj/../OS/ProtoThread-Core/sys/process.c:274
        if(poll_requested) {
20003aac:	0009c783          	lbu	a5,0(s3)
20003ab0:	0ff7f793          	andi	a5,a5,255
20003ab4:	c391                	beqz	a5,20003ab8 <do_event+0x62>
F:\文档\串口助手\ProtoThread\ProtoThread-Templates-main\CH573_PT_Template\obj/../OS/ProtoThread-Core/sys/process.c:275
          do_poll();
20003ab6:	37a5                	jal	20003a1e <do_poll>
F:\文档\串口助手\ProtoThread\ProtoThread-Templates-main\CH573_PT_Template\obj/../OS/ProtoThread-Core/sys/process.c:277 (discriminator 2)
        call_process(p, ev, data);
20003ab8:	8522                	mv	a0,s0
20003aba:	864a                	mv	a2,s2
20003abc:	85a6                	mv	a1,s1
20003abe:	3d8d                	jal	20003930 <call_process>
F:\文档\串口助手\ProtoThread\ProtoThread-Templates-main\CH573_PT_Template\obj/../OS/ProtoThread-Core/sys/process.c:270 (discriminator 2)
      for(p = process_list; p != NULL; p = p->next) {
20003ac0:	4000                	lw	s0,0(s0)
20003ac2:	bfe9                	j	20003a9c <do_event+0x46>
F:\文档\串口助手\ProtoThread\ProtoThread-Templates-main\CH573_PT_Template\obj/../OS/ProtoThread-Core/sys/process.c:284
      if(ev == PROCESS_EVENT_INIT) {
20003ac4:	08100793          	li	a5,129
20003ac8:	00f49563          	bne	s1,a5,20003ad2 <do_event+0x7c>
F:\文档\串口助手\ProtoThread\ProtoThread-Templates-main\CH573_PT_Template\obj/../OS/ProtoThread-Core/sys/process.c:285
        receiver->state = PROCESS_STATE_RUNNING;
20003acc:	4785                	li	a5,1
20003ace:	00f50523          	sb	a5,10(a0)
F:\文档\串口助手\ProtoThread\ProtoThread-Templates-main\CH573_PT_Template\obj/../OS/ProtoThread-Core/sys/process.c:292
}
20003ad2:	4462                	lw	s0,24(sp)
20003ad4:	40f2                	lw	ra,28(sp)
20003ad6:	49b2                	lw	s3,12(sp)
F:\文档\串口助手\ProtoThread\ProtoThread-Templates-main\CH573_PT_Template\obj/../OS/ProtoThread-Core/sys/process.c:289
      call_process(receiver, ev, data);
20003ad8:	864a                	mv	a2,s2
20003ada:	85a6                	mv	a1,s1
F:\文档\串口助手\ProtoThread\ProtoThread-Templates-main\CH573_PT_Template\obj/../OS/ProtoThread-Core/sys/process.c:292
}
20003adc:	4942                	lw	s2,16(sp)
20003ade:	44d2                	lw	s1,20(sp)
20003ae0:	6105                	addi	sp,sp,32
F:\文档\串口助手\ProtoThread\ProtoThread-Templates-main\CH573_PT_Template\obj/../OS/ProtoThread-Core/sys/process.c:289
      call_process(receiver, ev, data);
20003ae2:	b5b9                	j	20003930 <call_process>
20003ae4:	8082                	ret

20003ae6 <process_run>:
process_run():
F:\文档\串口助手\ProtoThread\ProtoThread-Templates-main\CH573_PT_Template\obj/../OS/ProtoThread-Core/sys/process.c:296
/*---------------------------------------------------------------------------*/
__attribute__((section(".highcode"))) int
process_run(void)
{
20003ae6:	1141                	addi	sp,sp,-16
20003ae8:	c606                	sw	ra,12(sp)
F:\文档\串口助手\ProtoThread\ProtoThread-Templates-main\CH573_PT_Template\obj/../OS/ProtoThread-Core/sys/process.c:298
  /* Process poll events. */
  if(poll_requested) {
20003aea:	81a1c783          	lbu	a5,-2022(gp) # 20004102 <poll_requested>
20003aee:	c391                	beqz	a5,20003af2 <process_run+0xc>
F:\文档\串口助手\ProtoThread\ProtoThread-Templates-main\CH573_PT_Template\obj/../OS/ProtoThread-Core/sys/process.c:299
    do_poll();
20003af0:	373d                	jal	20003a1e <do_poll>
F:\文档\串口助手\ProtoThread\ProtoThread-Templates-main\CH573_PT_Template\obj/../OS/ProtoThread-Core/sys/process.c:303
  }

  /* Process one event from the queue */
  do_event();
20003af2:	3795                	jal	20003a56 <do_event>
F:\文档\串口助手\ProtoThread\ProtoThread-Templates-main\CH573_PT_Template\obj/../OS/ProtoThread-Core/sys/process.c:305

  return nevents + poll_requested;
20003af4:	81a18793          	addi	a5,gp,-2022 # 20004102 <poll_requested>
20003af8:	0007c783          	lbu	a5,0(a5)
F:\文档\串口助手\ProtoThread\ProtoThread-Templates-main\CH573_PT_Template\obj/../OS/ProtoThread-Core/sys/process.c:306
}
20003afc:	40b2                	lw	ra,12(sp)
F:\文档\串口助手\ProtoThread\ProtoThread-Templates-main\CH573_PT_Template\obj/../OS/ProtoThread-Core/sys/process.c:305
  return nevents + poll_requested;
20003afe:	8191c503          	lbu	a0,-2023(gp) # 20004101 <nevents>
F:\文档\串口助手\ProtoThread\ProtoThread-Templates-main\CH573_PT_Template\obj/../OS/ProtoThread-Core/sys/process.c:306
}
20003b02:	953e                	add	a0,a0,a5
20003b04:	0141                	addi	sp,sp,16
20003b06:	8082                	ret

20003b08 <process_poll>:
process_poll():
F:\文档\串口助手\ProtoThread\ProtoThread-Templates-main\CH573_PT_Template\obj/../OS/ProtoThread-Core/sys/process.c:360
}
/*---------------------------------------------------------------------------*/
__attribute__((section(".highcode"))) void
process_poll(struct process *p)
{
  if(p != NULL) {
20003b08:	cd09                	beqz	a0,20003b22 <process_poll+0x1a>
F:\文档\串口助手\ProtoThread\ProtoThread-Templates-main\CH573_PT_Template\obj/../OS/ProtoThread-Core/sys/process.c:361
    if(p->state == PROCESS_STATE_RUNNING ||
20003b0a:	00a54783          	lbu	a5,10(a0)
20003b0e:	4705                	li	a4,1
20003b10:	17fd                	addi	a5,a5,-1
20003b12:	0ff7f793          	andi	a5,a5,255
20003b16:	00f76663          	bltu	a4,a5,20003b22 <process_poll+0x1a>
F:\文档\串口助手\ProtoThread\ProtoThread-Templates-main\CH573_PT_Template\obj/../OS/ProtoThread-Core/sys/process.c:363
       p->state == PROCESS_STATE_CALLED) {
      p->needspoll = 1;
20003b1a:	00e505a3          	sb	a4,11(a0)
F:\文档\串口助手\ProtoThread\ProtoThread-Templates-main\CH573_PT_Template\obj/../OS/ProtoThread-Core/sys/process.c:364
      poll_requested = 1;
20003b1e:	80e18d23          	sb	a4,-2022(gp) # 20004102 <poll_requested>
F:\文档\串口助手\ProtoThread\ProtoThread-Templates-main\CH573_PT_Template\obj/../OS/ProtoThread-Core/sys/process.c:367
    }
  }
}
20003b22:	8082                	ret

20003b24 <SetSysClock>:
SetSysClock():
F:\文档\串口助手\ProtoThread\ProtoThread-Templates-main\CH573_PT_Template\obj/../Drivers/StdPeriphDriver/CH57x_sys.c:22
*******************************************************************************/
__attribute__((section(".highcode")))
void SetSysClock( SYS_CLKTypeDef sc)
{
  UINT32 i;
  R8_SAFE_ACCESS_SIG = SAFE_ACCESS_SIG1;
20003b24:	400017b7          	lui	a5,0x40001
20003b28:	05700693          	li	a3,87
20003b2c:	04d78023          	sb	a3,64(a5) # 40001040 <_eusrstack+0x1fff9040>
F:\文档\串口助手\ProtoThread\ProtoThread-Templates-main\CH573_PT_Template\obj/../Drivers/StdPeriphDriver/CH57x_sys.c:23
  R8_SAFE_ACCESS_SIG = SAFE_ACCESS_SIG2;
20003b30:	fa800713          	li	a4,-88
20003b34:	04e78023          	sb	a4,64(a5)
F:\文档\串口助手\ProtoThread\ProtoThread-Templates-main\CH573_PT_Template\obj/../Drivers/StdPeriphDriver/CH57x_sys.c:24
  R8_PLL_CONFIG &= ~(1<<5);   //
20003b38:	04b7c603          	lbu	a2,75(a5)
20003b3c:	0df67613          	andi	a2,a2,223
20003b40:	04c785a3          	sb	a2,75(a5)
F:\文档\串口助手\ProtoThread\ProtoThread-Templates-main\CH573_PT_Template\obj/../Drivers/StdPeriphDriver/CH57x_sys.c:25
  R8_SAFE_ACCESS_SIG = 0;
20003b44:	04078023          	sb	zero,64(a5)
F:\文档\串口助手\ProtoThread\ProtoThread-Templates-main\CH573_PT_Template\obj/../Drivers/StdPeriphDriver/CH57x_sys.c:26
  if ( sc & 0x20 ){    // HSE div
20003b48:	02057613          	andi	a2,a0,32
20003b4c:	c625                	beqz	a2,20003bb4 <SetSysClock+0x90>
F:\文档\串口助手\ProtoThread\ProtoThread-Templates-main\CH573_PT_Template\obj/../Drivers/StdPeriphDriver/CH57x_sys.c:27
    if ( !( R8_HFCK_PWR_CTRL & RB_CLK_XT32M_PON ) ){
20003b4e:	00a7c603          	lbu	a2,10(a5)
20003b52:	8a11                	andi	a2,a2,4
20003b54:	e20d                	bnez	a2,20003b76 <SetSysClock+0x52>
F:\文档\串口助手\ProtoThread\ProtoThread-Templates-main\CH573_PT_Template\obj/../Drivers/StdPeriphDriver/CH57x_sys.c:28
      R8_SAFE_ACCESS_SIG = SAFE_ACCESS_SIG1;
20003b56:	04d78023          	sb	a3,64(a5)
F:\文档\串口助手\ProtoThread\ProtoThread-Templates-main\CH573_PT_Template\obj/../Drivers/StdPeriphDriver/CH57x_sys.c:29
      R8_SAFE_ACCESS_SIG = SAFE_ACCESS_SIG2;
20003b5a:	04e78023          	sb	a4,64(a5)
F:\文档\串口助手\ProtoThread\ProtoThread-Templates-main\CH573_PT_Template\obj/../Drivers/StdPeriphDriver/CH57x_sys.c:30
      R8_HFCK_PWR_CTRL |= RB_CLK_XT32M_PON;    // HSE power on
20003b5e:	00a7c703          	lbu	a4,10(a5)
20003b62:	00476713          	ori	a4,a4,4
20003b66:	00e78523          	sb	a4,10(a5)
20003b6a:	4b000793          	li	a5,1200
F:\文档\串口助手\ProtoThread\ProtoThread-Templates-main\CH573_PT_Template\obj/../Drivers/StdPeriphDriver/CH57x_sys.c:31 (discriminator 3)
      for(i=0;i<1200;i++){  __nop();__nop();  }
20003b6e:	0001                	nop
20003b70:	0001                	nop
20003b72:	17fd                	addi	a5,a5,-1
20003b74:	ffed                	bnez	a5,20003b6e <SetSysClock+0x4a>
F:\文档\串口助手\ProtoThread\ProtoThread-Templates-main\CH573_PT_Template\obj/../Drivers/StdPeriphDriver/CH57x_sys.c:34
    }

    R8_SAFE_ACCESS_SIG = SAFE_ACCESS_SIG1;
20003b76:	400017b7          	lui	a5,0x40001
20003b7a:	05700693          	li	a3,87
20003b7e:	04d78023          	sb	a3,64(a5) # 40001040 <_eusrstack+0x1fff9040>
F:\文档\串口助手\ProtoThread\ProtoThread-Templates-main\CH573_PT_Template\obj/../Drivers/StdPeriphDriver/CH57x_sys.c:35
    R8_SAFE_ACCESS_SIG = SAFE_ACCESS_SIG2;
20003b82:	fa800713          	li	a4,-88
20003b86:	04e78023          	sb	a4,64(a5)
F:\文档\串口助手\ProtoThread\ProtoThread-Templates-main\CH573_PT_Template\obj/../Drivers/StdPeriphDriver/CH57x_sys.c:36
    R16_CLK_SYS_CFG = ( 0 << 6 ) | ( sc & 0x1f );
20003b8a:	897d                	andi	a0,a0,31
20003b8c:	00a79423          	sh	a0,8(a5)
F:\文档\串口助手\ProtoThread\ProtoThread-Templates-main\CH573_PT_Template\obj/../Drivers/StdPeriphDriver/CH57x_sys.c:37
    __nop();__nop();__nop();__nop();
20003b90:	0001                	nop
20003b92:	0001                	nop
20003b94:	0001                	nop
20003b96:	0001                	nop
F:\文档\串口助手\ProtoThread\ProtoThread-Templates-main\CH573_PT_Template\obj/../Drivers/StdPeriphDriver/CH57x_sys.c:38
    R8_SAFE_ACCESS_SIG = 0;
20003b98:	04078023          	sb	zero,64(a5)
F:\文档\串口助手\ProtoThread\ProtoThread-Templates-main\CH573_PT_Template\obj/../Drivers/StdPeriphDriver/CH57x_sys.c:39
    R8_SAFE_ACCESS_SIG = SAFE_ACCESS_SIG1;
20003b9c:	04d78023          	sb	a3,64(a5)
F:\文档\串口助手\ProtoThread\ProtoThread-Templates-main\CH573_PT_Template\obj/../Drivers/StdPeriphDriver/CH57x_sys.c:40
    R8_SAFE_ACCESS_SIG = SAFE_ACCESS_SIG2;
20003ba0:	04e78023          	sb	a4,64(a5)
F:\文档\串口助手\ProtoThread\ProtoThread-Templates-main\CH573_PT_Template\obj/../Drivers/StdPeriphDriver/CH57x_sys.c:41
    R8_FLASH_CFG = 0X01;
20003ba4:	4685                	li	a3,1
20003ba6:	40002737          	lui	a4,0x40002
F:\文档\串口助手\ProtoThread\ProtoThread-Templates-main\CH573_PT_Template\obj/../Drivers/StdPeriphDriver/CH57x_sys.c:59
    R16_CLK_SYS_CFG = ( 1 << 6 ) | ( sc & 0x1f );
    __nop();__nop();__nop();__nop();
    R8_SAFE_ACCESS_SIG = 0;
    R8_SAFE_ACCESS_SIG = SAFE_ACCESS_SIG1;
    R8_SAFE_ACCESS_SIG = SAFE_ACCESS_SIG2;
    R8_FLASH_CFG = 0X03;
20003baa:	80d703a3          	sb	a3,-2041(a4) # 40001807 <_eusrstack+0x1fff9807>
F:\文档\串口助手\ProtoThread\ProtoThread-Templates-main\CH573_PT_Template\obj/../Drivers/StdPeriphDriver/CH57x_sys.c:60
    R8_SAFE_ACCESS_SIG = 0;
20003bae:	04078023          	sb	zero,64(a5)
F:\文档\串口助手\ProtoThread\ProtoThread-Templates-main\CH573_PT_Template\obj/../Drivers/StdPeriphDriver/CH57x_sys.c:62
  }
}
20003bb2:	8082                	ret
F:\文档\串口助手\ProtoThread\ProtoThread-Templates-main\CH573_PT_Template\obj/../Drivers/StdPeriphDriver/CH57x_sys.c:45
  else if ( sc & 0x40 ){    // PLL div
20003bb4:	04057613          	andi	a2,a0,64
20003bb8:	de6d                	beqz	a2,20003bb2 <SetSysClock+0x8e>
F:\文档\串口助手\ProtoThread\ProtoThread-Templates-main\CH573_PT_Template\obj/../Drivers/StdPeriphDriver/CH57x_sys.c:46
    if ( !( R8_HFCK_PWR_CTRL & RB_CLK_PLL_PON ) ){
20003bba:	00a7c603          	lbu	a2,10(a5)
20003bbe:	8a41                	andi	a2,a2,16
20003bc0:	e20d                	bnez	a2,20003be2 <SetSysClock+0xbe>
F:\文档\串口助手\ProtoThread\ProtoThread-Templates-main\CH573_PT_Template\obj/../Drivers/StdPeriphDriver/CH57x_sys.c:47
        R8_SAFE_ACCESS_SIG = SAFE_ACCESS_SIG1;
20003bc2:	04d78023          	sb	a3,64(a5)
F:\文档\串口助手\ProtoThread\ProtoThread-Templates-main\CH573_PT_Template\obj/../Drivers/StdPeriphDriver/CH57x_sys.c:48
        R8_SAFE_ACCESS_SIG = SAFE_ACCESS_SIG2;
20003bc6:	04e78023          	sb	a4,64(a5)
F:\文档\串口助手\ProtoThread\ProtoThread-Templates-main\CH573_PT_Template\obj/../Drivers/StdPeriphDriver/CH57x_sys.c:49
        R8_HFCK_PWR_CTRL |= RB_CLK_PLL_PON;    // PLL power on
20003bca:	00a7c703          	lbu	a4,10(a5)
20003bce:	01076713          	ori	a4,a4,16
20003bd2:	00e78523          	sb	a4,10(a5)
20003bd6:	7d000793          	li	a5,2000
F:\文档\串口助手\ProtoThread\ProtoThread-Templates-main\CH573_PT_Template\obj/../Drivers/StdPeriphDriver/CH57x_sys.c:50 (discriminator 3)
        for(i=0;i<2000;i++){  __nop();__nop();  }
20003bda:	0001                	nop
20003bdc:	0001                	nop
20003bde:	17fd                	addi	a5,a5,-1
20003be0:	ffed                	bnez	a5,20003bda <SetSysClock+0xb6>
F:\文档\串口助手\ProtoThread\ProtoThread-Templates-main\CH573_PT_Template\obj/../Drivers/StdPeriphDriver/CH57x_sys.c:52
    R8_SAFE_ACCESS_SIG = SAFE_ACCESS_SIG1;
20003be2:	400017b7          	lui	a5,0x40001
20003be6:	05700693          	li	a3,87
20003bea:	04d78023          	sb	a3,64(a5) # 40001040 <_eusrstack+0x1fff9040>
F:\文档\串口助手\ProtoThread\ProtoThread-Templates-main\CH573_PT_Template\obj/../Drivers/StdPeriphDriver/CH57x_sys.c:53
    R8_SAFE_ACCESS_SIG = SAFE_ACCESS_SIG2;
20003bee:	fa800713          	li	a4,-88
F:\文档\串口助手\ProtoThread\ProtoThread-Templates-main\CH573_PT_Template\obj/../Drivers/StdPeriphDriver/CH57x_sys.c:54
    R16_CLK_SYS_CFG = ( 1 << 6 ) | ( sc & 0x1f );
20003bf2:	897d                	andi	a0,a0,31
F:\文档\串口助手\ProtoThread\ProtoThread-Templates-main\CH573_PT_Template\obj/../Drivers/StdPeriphDriver/CH57x_sys.c:53
    R8_SAFE_ACCESS_SIG = SAFE_ACCESS_SIG2;
20003bf4:	04e78023          	sb	a4,64(a5)
F:\文档\串口助手\ProtoThread\ProtoThread-Templates-main\CH573_PT_Template\obj/../Drivers/StdPeriphDriver/CH57x_sys.c:54
    R16_CLK_SYS_CFG = ( 1 << 6 ) | ( sc & 0x1f );
20003bf8:	04056513          	ori	a0,a0,64
20003bfc:	00a79423          	sh	a0,8(a5)
F:\文档\串口助手\ProtoThread\ProtoThread-Templates-main\CH573_PT_Template\obj/../Drivers/StdPeriphDriver/CH57x_sys.c:55
    __nop();__nop();__nop();__nop();
20003c00:	0001                	nop
20003c02:	0001                	nop
20003c04:	0001                	nop
20003c06:	0001                	nop
F:\文档\串口助手\ProtoThread\ProtoThread-Templates-main\CH573_PT_Template\obj/../Drivers/StdPeriphDriver/CH57x_sys.c:56
    R8_SAFE_ACCESS_SIG = 0;
20003c08:	04078023          	sb	zero,64(a5)
F:\文档\串口助手\ProtoThread\ProtoThread-Templates-main\CH573_PT_Template\obj/../Drivers/StdPeriphDriver/CH57x_sys.c:57
    R8_SAFE_ACCESS_SIG = SAFE_ACCESS_SIG1;
20003c0c:	04d78023          	sb	a3,64(a5)
F:\文档\串口助手\ProtoThread\ProtoThread-Templates-main\CH573_PT_Template\obj/../Drivers/StdPeriphDriver/CH57x_sys.c:58
    R8_SAFE_ACCESS_SIG = SAFE_ACCESS_SIG2;
20003c10:	04e78023          	sb	a4,64(a5)
F:\文档\串口助手\ProtoThread\ProtoThread-Templates-main\CH573_PT_Template\obj/../Drivers/StdPeriphDriver/CH57x_sys.c:59
    R8_FLASH_CFG = 0X03;
20003c14:	468d                	li	a3,3
20003c16:	40002737          	lui	a4,0x40002
20003c1a:	bf41                	j	20003baa <SetSysClock+0x86>

20003c1c <SYS_ResetExecute>:
SYS_ResetExecute():
F:\文档\串口助手\ProtoThread\ProtoThread-Templates-main\CH573_PT_Template\obj/../Drivers/StdPeriphDriver/CH57x_sys.c:110
* Input          : None
* Return         : None
*******************************************************************************/
__attribute__((section(".highcode")))
void SYS_ResetExecute( void )
{
20003c1c:	1141                	addi	sp,sp,-16
F:\文档\串口助手\ProtoThread\ProtoThread-Templates-main\CH573_PT_Template\obj/../Drivers/StdPeriphDriver/CH57x_sys.c:111
  FLASH_ROM_SW_RESET();
20003c1e:	4681                	li	a3,0
20003c20:	4601                	li	a2,0
20003c22:	4581                	li	a1,0
20003c24:	4501                	li	a0,0
F:\文档\串口助手\ProtoThread\ProtoThread-Templates-main\CH573_PT_Template\obj/../Drivers/StdPeriphDriver/CH57x_sys.c:110
{
20003c26:	c606                	sw	ra,12(sp)
F:\文档\串口助手\ProtoThread\ProtoThread-Templates-main\CH573_PT_Template\obj/../Drivers/StdPeriphDriver/CH57x_sys.c:111
  FLASH_ROM_SW_RESET();
20003c28:	2291                	jal	20003d6c <FLASH_EEPROM_CMD>
F:\文档\串口助手\ProtoThread\ProtoThread-Templates-main\CH573_PT_Template\obj/../Drivers/StdPeriphDriver/CH57x_sys.c:112
  R8_SAFE_ACCESS_SIG = SAFE_ACCESS_SIG1;
20003c2a:	400017b7          	lui	a5,0x40001
20003c2e:	05700713          	li	a4,87
20003c32:	04e78023          	sb	a4,64(a5) # 40001040 <_eusrstack+0x1fff9040>
F:\文档\串口助手\ProtoThread\ProtoThread-Templates-main\CH573_PT_Template\obj/../Drivers/StdPeriphDriver/CH57x_sys.c:113
  R8_SAFE_ACCESS_SIG = SAFE_ACCESS_SIG2;
20003c36:	fa800713          	li	a4,-88
20003c3a:	04e78023          	sb	a4,64(a5)
F:\文档\串口助手\ProtoThread\ProtoThread-Templates-main\CH573_PT_Template\obj/../Drivers/StdPeriphDriver/CH57x_sys.c:114
  R8_RST_WDOG_CTRL |= RB_SOFTWARE_RESET;
20003c3e:	0467c703          	lbu	a4,70(a5)
20003c42:	00176713          	ori	a4,a4,1
20003c46:	04e78323          	sb	a4,70(a5)
F:\文档\串口助手\ProtoThread\ProtoThread-Templates-main\CH573_PT_Template\obj/../Drivers/StdPeriphDriver/CH57x_sys.c:115
  R8_SAFE_ACCESS_SIG = 0;
20003c4a:	04078023          	sb	zero,64(a5)
F:\文档\串口助手\ProtoThread\ProtoThread-Templates-main\CH573_PT_Template\obj/../Drivers/StdPeriphDriver/CH57x_sys.c:116
}
20003c4e:	40b2                	lw	ra,12(sp)
20003c50:	0141                	addi	sp,sp,16
20003c52:	8082                	ret

20003c54 <HardFault_Handler>:
HardFault_Handler():
F:\文档\串口助手\ProtoThread\ProtoThread-Templates-main\CH573_PT_Template\obj/../Drivers/StdPeriphDriver/CH57x_sys.c:211
*******************************************************************************/
__attribute__((interrupt("WCH-Interrupt-fast")))
__attribute__((section(".highcode")))
void HardFault_Handler( void )
{
  PRINT("HardFault_Handler\n");
20003c54:	dffff517          	auipc	a0,0xdffff
20003c58:	c4050513          	addi	a0,a0,-960 # 2894 <_sbrk+0x1dc>
20003c5c:	dfffe097          	auipc	ra,0xdfffe
20003c60:	8ba080e7          	jalr	-1862(ra) # 1516 <puts>
F:\文档\串口助手\ProtoThread\ProtoThread-Templates-main\CH573_PT_Template\obj/../Drivers/StdPeriphDriver/CH57x_sys.c:212 (discriminator 1)
  while(1);
20003c64:	a001                	j	20003c64 <HardFault_Handler+0x10>

20003c66 <mDelayuS>:
mDelayuS():
F:\文档\串口助手\ProtoThread\ProtoThread-Templates-main\CH573_PT_Template\obj/../Drivers/StdPeriphDriver/CH57x_sys.c:233
__attribute__((section(".highcode")))
void mDelayuS( UINT16 t )
{
    UINT32 i;
#if     (FREQ_SYS == 60000000)
    i = t*15;
20003c66:	47bd                	li	a5,15
20003c68:	02f50533          	mul	a0,a0,a5
F:\文档\串口助手\ProtoThread\ProtoThread-Templates-main\CH573_PT_Template\obj/../Drivers/StdPeriphDriver/CH57x_sys.c:255 (discriminator 1)
#elif	(FREQ_SYS == 1000000)
    i = t>>2;
#endif
    do
    {
    	__nop();
20003c6c:	0001                	nop
F:\文档\串口助手\ProtoThread\ProtoThread-Templates-main\CH573_PT_Template\obj/../Drivers/StdPeriphDriver/CH57x_sys.c:256 (discriminator 1)
    }while(--i);
20003c6e:	157d                	addi	a0,a0,-1
20003c70:	fd75                	bnez	a0,20003c6c <mDelayuS+0x6>
F:\文档\串口助手\ProtoThread\ProtoThread-Templates-main\CH573_PT_Template\obj/../Drivers/StdPeriphDriver/CH57x_sys.c:257
}
20003c72:	8082                	ret

20003c74 <mDelaymS>:
mDelaymS():
F:\文档\串口助手\ProtoThread\ProtoThread-Templates-main\CH573_PT_Template\obj/../Drivers/StdPeriphDriver/CH57x_sys.c:267
* Input          : t: 时间参数
* Return         : None
*******************************************************************************/
__attribute__((section(".highcode")))
void mDelaymS( UINT16 t )
{
20003c74:	1141                	addi	sp,sp,-16
20003c76:	c422                	sw	s0,8(sp)
20003c78:	c226                	sw	s1,4(sp)
20003c7a:	c606                	sw	ra,12(sp)
20003c7c:	84aa                	mv	s1,a0
F:\文档\串口助手\ProtoThread\ProtoThread-Templates-main\CH573_PT_Template\obj/../Drivers/StdPeriphDriver/CH57x_sys.c:270
    UINT16 i;

    for(i=0; i<t; i++)
20003c7e:	4401                	li	s0,0
F:\文档\串口助手\ProtoThread\ProtoThread-Templates-main\CH573_PT_Template\obj/../Drivers/StdPeriphDriver/CH57x_sys.c:270 (discriminator 1)
20003c80:	00941763          	bne	s0,s1,20003c8e <mDelaymS+0x1a>
F:\文档\串口助手\ProtoThread\ProtoThread-Templates-main\CH573_PT_Template\obj/../Drivers/StdPeriphDriver/CH57x_sys.c:272
        mDelayuS(1000);
}
20003c84:	40b2                	lw	ra,12(sp)
20003c86:	4422                	lw	s0,8(sp)
20003c88:	4492                	lw	s1,4(sp)
20003c8a:	0141                	addi	sp,sp,16
20003c8c:	8082                	ret
F:\文档\串口助手\ProtoThread\ProtoThread-Templates-main\CH573_PT_Template\obj/../Drivers/StdPeriphDriver/CH57x_sys.c:270 (discriminator 3)
    for(i=0; i<t; i++)
20003c8e:	0405                	addi	s0,s0,1
F:\文档\串口助手\ProtoThread\ProtoThread-Templates-main\CH573_PT_Template\obj/../Drivers/StdPeriphDriver/CH57x_sys.c:271 (discriminator 3)
        mDelayuS(1000);
20003c90:	3e800513          	li	a0,1000
F:\文档\串口助手\ProtoThread\ProtoThread-Templates-main\CH573_PT_Template\obj/../Drivers/StdPeriphDriver/CH57x_sys.c:270 (discriminator 3)
    for(i=0; i<t; i++)
20003c94:	0442                	slli	s0,s0,0x10
F:\文档\串口助手\ProtoThread\ProtoThread-Templates-main\CH573_PT_Template\obj/../Drivers/StdPeriphDriver/CH57x_sys.c:271 (discriminator 3)
        mDelayuS(1000);
20003c96:	3fc1                	jal	20003c66 <mDelayuS>
F:\文档\串口助手\ProtoThread\ProtoThread-Templates-main\CH573_PT_Template\obj/../Drivers/StdPeriphDriver/CH57x_sys.c:270 (discriminator 3)
    for(i=0; i<t; i++)
20003c98:	8041                	srli	s0,s0,0x10
20003c9a:	b7dd                	j	20003c80 <mDelaymS+0xc>

20003c9c <RTC_IRQHandler>:
RTC_IRQHandler():
F:\文档\串口助手\ProtoThread\ProtoThread-Templates-main\CH573_PT_Template\obj/../Drivers/BLE/HAL/RTC.c:60
 */
__attribute__((interrupt("WCH-Interrupt-fast")))
__attribute__((section(".highcode")))
void RTC_IRQHandler( void )
{
  R8_RTC_FLAG_CTRL = ( RB_RTC_TMR_CLR | RB_RTC_TRIG_CLR );
20003c9c:	400017b7          	lui	a5,0x40001
20003ca0:	03000713          	li	a4,48
20003ca4:	02e78823          	sb	a4,48(a5) # 40001030 <_eusrstack+0x1fff9030>
F:\文档\串口助手\ProtoThread\ProtoThread-Templates-main\CH573_PT_Template\obj/../Drivers/BLE/HAL/RTC.c:61
  RTCTigFlag = 1;
20003ca8:	4785                	li	a5,1
20003caa:	82f1a223          	sw	a5,-2012(gp) # 2000410c <RTCTigFlag>
F:\文档\串口助手\ProtoThread\ProtoThread-Templates-main\CH573_PT_Template\obj/../Drivers/BLE/HAL/RTC.c:62
}
20003cae:	30200073          	mret

20003cb2 <FLASH_ROM_BEG>:
FLASH_ROM_BEG():
20003cb2:	80040323          	sb	zero,-2042(s0)
20003cb6:	4795                	li	a5,5
20003cb8:	80f40323          	sb	a5,-2042(s0)
20003cbc:	80a40223          	sb	a0,-2044(s0)
20003cc0:	8082                	ret

20003cc2 <FLASH_ROM_END>:
FLASH_ROM_END():
20003cc2:	80640783          	lb	a5,-2042(s0)
20003cc6:	fe07cee3          	bltz	a5,20003cc2 <FLASH_ROM_END>
20003cca:	80040323          	sb	zero,-2042(s0)
20003cce:	8082                	ret

20003cd0 <FLASH_ROM_IN>:
FLASH_ROM_IN():
20003cd0:	80640783          	lb	a5,-2042(s0)
20003cd4:	fe07cee3          	bltz	a5,20003cd0 <FLASH_ROM_IN>
20003cd8:	80444503          	lbu	a0,-2044(s0)
20003cdc:	8082                	ret

20003cde <FLASH_ROM_OUT>:
FLASH_ROM_OUT():
20003cde:	80640783          	lb	a5,-2042(s0)
20003ce2:	fe07cee3          	bltz	a5,20003cde <FLASH_ROM_OUT>
20003ce6:	80a40223          	sb	a0,-2044(s0)
20003cea:	8082                	ret

20003cec <FLASH_ROM_ADDR>:
FLASH_ROM_ADDR():
20003cec:	1141                	addi	sp,sp,-16
20003cee:	c426                	sw	s1,8(sp)
20003cf0:	c24a                	sw	s2,4(sp)
20003cf2:	c04e                	sw	s3,0(sp)
20003cf4:	c606                	sw	ra,12(sp)
20003cf6:	0bf57713          	andi	a4,a0,191
20003cfa:	47ad                	li	a5,11
20003cfc:	89aa                	mv	s3,a0
20003cfe:	892e                	mv	s2,a1
20003d00:	4495                	li	s1,5
20003d02:	00f70663          	beq	a4,a5,20003d0e <FLASH_ROM_ADDR+0x22>
20003d06:	4519                	li	a0,6
20003d08:	376d                	jal	20003cb2 <FLASH_ROM_BEG>
20003d0a:	3f65                	jal	20003cc2 <FLASH_ROM_END>
20003d0c:	448d                	li	s1,3
20003d0e:	854e                	mv	a0,s3
20003d10:	374d                	jal	20003cb2 <FLASH_ROM_BEG>
20003d12:	59fd                	li	s3,-1
20003d14:	14fd                	addi	s1,s1,-1
20003d16:	01349863          	bne	s1,s3,20003d26 <FLASH_ROM_ADDR+0x3a>
20003d1a:	40b2                	lw	ra,12(sp)
20003d1c:	44a2                	lw	s1,8(sp)
20003d1e:	4912                	lw	s2,4(sp)
20003d20:	4982                	lw	s3,0(sp)
20003d22:	0141                	addi	sp,sp,16
20003d24:	8082                	ret
20003d26:	01095513          	srli	a0,s2,0x10
20003d2a:	0ff57513          	andi	a0,a0,255
20003d2e:	3f45                	jal	20003cde <FLASH_ROM_OUT>
20003d30:	0922                	slli	s2,s2,0x8
20003d32:	b7cd                	j	20003d14 <FLASH_ROM_ADDR+0x28>

20003d34 <FLASH_ROM_WAIT>:
FLASH_ROM_WAIT():
20003d34:	1101                	addi	sp,sp,-32
20003d36:	cc26                	sw	s1,24(sp)
20003d38:	ce06                	sw	ra,28(sp)
20003d3a:	000804b7          	lui	s1,0x80
20003d3e:	3751                	jal	20003cc2 <FLASH_ROM_END>
20003d40:	4515                	li	a0,5
20003d42:	3f85                	jal	20003cb2 <FLASH_ROM_BEG>
20003d44:	3771                	jal	20003cd0 <FLASH_ROM_IN>
20003d46:	3769                	jal	20003cd0 <FLASH_ROM_IN>
20003d48:	c62a                	sw	a0,12(sp)
20003d4a:	3fa5                	jal	20003cc2 <FLASH_ROM_END>
20003d4c:	4532                	lw	a0,12(sp)
20003d4e:	00157793          	andi	a5,a0,1
20003d52:	eb89                	bnez	a5,20003d64 <FLASH_ROM_WAIT+0x30>
20003d54:	00156513          	ori	a0,a0,1
20003d58:	0ff57513          	andi	a0,a0,255
20003d5c:	40f2                	lw	ra,28(sp)
20003d5e:	44e2                	lw	s1,24(sp)
20003d60:	6105                	addi	sp,sp,32
20003d62:	8082                	ret
20003d64:	14fd                	addi	s1,s1,-1
20003d66:	fce9                	bnez	s1,20003d40 <FLASH_ROM_WAIT+0xc>
20003d68:	4501                	li	a0,0
20003d6a:	bfcd                	j	20003d5c <FLASH_ROM_WAIT+0x28>

20003d6c <FLASH_EEPROM_CMD>:
FLASH_EEPROM_CMD():
20003d6c:	7139                	addi	sp,sp,-64
20003d6e:	dc26                	sw	s1,56(sp)
20003d70:	da4a                	sw	s2,52(sp)
20003d72:	d84e                	sw	s3,48(sp)
20003d74:	d652                	sw	s4,44(sp)
20003d76:	d456                	sw	s5,40(sp)
20003d78:	d25a                	sw	s6,36(sp)
20003d7a:	d05e                	sw	s7,32(sp)
20003d7c:	de06                	sw	ra,60(sp)
20003d7e:	ce62                	sw	s8,28(sp)
20003d80:	cc66                	sw	s9,24(sp)
20003d82:	e000e7b7          	lui	a5,0xe000e
20003d86:	577d                	li	a4,-1
20003d88:	0007aa83          	lw	s5,0(a5) # e000e000 <_eusrstack+0xc0006000>
20003d8c:	c622                	sw	s0,12(sp)
20003d8e:	0047aa03          	lw	s4,4(a5)
20003d92:	18e7a023          	sw	a4,384(a5)
20003d96:	18e7a223          	sw	a4,388(a5)
20003d9a:	400017b7          	lui	a5,0x40001
20003d9e:	05700713          	li	a4,87
20003da2:	04e78023          	sb	a4,64(a5) # 40001040 <_eusrstack+0x1fff9040>
20003da6:	fa800713          	li	a4,-88
20003daa:	04e78023          	sb	a4,64(a5)
20003dae:	0447c783          	lbu	a5,68(a5)
20003db2:	ff750b93          	addi	s7,a0,-9
20003db6:	84b6                	mv	s1,a3
20003db8:	07e2                	slli	a5,a5,0x18
20003dba:	0ffbfb93          	andi	s7,s7,255
20003dbe:	4685                	li	a3,1
20003dc0:	89aa                	mv	s3,a0
20003dc2:	8b2e                	mv	s6,a1
20003dc4:	8932                	mv	s2,a2
20003dc6:	40002437          	lui	s0,0x40002
20003dca:	87e1                	srai	a5,a5,0x18
20003dcc:	5701                	li	a4,-32
20003dce:	0176fa63          	bgeu	a3,s7,20003de2 <FLASH_EEPROM_CMD+0x76>
20003dd2:	00d50863          	beq	a0,a3,20003de2 <FLASH_EEPROM_CMD+0x76>
20003dd6:	4689                	li	a3,2
20003dd8:	02000713          	li	a4,32
20003ddc:	00d51363          	bne	a0,a3,20003de2 <FLASH_EEPROM_CMD+0x76>
20003de0:	5701                	li	a4,-32
20003de2:	8fd9                	or	a5,a5,a4
20003de4:	0ff7f793          	andi	a5,a5,255
20003de8:	40001cb7          	lui	s9,0x40001
20003dec:	04fc8223          	sb	a5,68(s9) # 40001044 <_eusrstack+0x1fff9044>
20003df0:	4711                	li	a4,4
20003df2:	80e40323          	sb	a4,-2042(s0) # 40001806 <_eusrstack+0x1fff9806>
20003df6:	0ff00513          	li	a0,255
20003dfa:	3d65                	jal	20003cb2 <FLASH_ROM_BEG>
20003dfc:	4c09                	li	s8,2
20003dfe:	35d1                	jal	20003cc2 <FLASH_ROM_END>
20003e00:	117c6963          	bltu	s8,s7,20003f12 <FLASH_EEPROM_CMD+0x1a6>
20003e04:	000707b7          	lui	a5,0x70
20003e08:	9b3e                	add	s6,s6,a5
20003e0a:	00078737          	lui	a4,0x78
20003e0e:	5579                	li	a0,-2
20003e10:	02eb7e63          	bgeu	s6,a4,20003e4c <FLASH_EEPROM_CMD+0xe0>
20003e14:	009b07b3          	add	a5,s6,s1
20003e18:	02f76a63          	bltu	a4,a5,20003e4c <FLASH_EEPROM_CMD+0xe0>
20003e1c:	47a9                	li	a5,10
20003e1e:	06f99963          	bne	s3,a5,20003e90 <FLASH_EEPROM_CMD+0x124>
20003e22:	e489                	bnez	s1,20003e2c <FLASH_EEPROM_CMD+0xc0>
20003e24:	4481                	li	s1,0
20003e26:	3d71                	jal	20003cc2 <FLASH_ROM_END>
20003e28:	8526                	mv	a0,s1
20003e2a:	a00d                	j	20003e4c <FLASH_EEPROM_CMD+0xe0>
20003e2c:	85da                	mv	a1,s6
20003e2e:	4509                	li	a0,2
20003e30:	3d75                	jal	20003cec <FLASH_ROM_ADDR>
20003e32:	0905                	addi	s2,s2,1
20003e34:	fff94503          	lbu	a0,-1(s2)
20003e38:	14fd                	addi	s1,s1,-1
20003e3a:	0b05                	addi	s6,s6,1
20003e3c:	354d                	jal	20003cde <FLASH_ROM_OUT>
20003e3e:	c481                	beqz	s1,20003e46 <FLASH_EEPROM_CMD+0xda>
20003e40:	0ffb7793          	andi	a5,s6,255
20003e44:	f7fd                	bnez	a5,20003e32 <FLASH_EEPROM_CMD+0xc6>
20003e46:	35fd                	jal	20003d34 <FLASH_ROM_WAIT>
20003e48:	fd69                	bnez	a0,20003e22 <FLASH_EEPROM_CMD+0xb6>
20003e4a:	557d                	li	a0,-1
20003e4c:	400017b7          	lui	a5,0x40001
20003e50:	05700713          	li	a4,87
20003e54:	04e78023          	sb	a4,64(a5) # 40001040 <_eusrstack+0x1fff9040>
20003e58:	fa800713          	li	a4,-88
20003e5c:	04e78023          	sb	a4,64(a5)
20003e60:	0447c703          	lbu	a4,68(a5)
20003e64:	8b41                	andi	a4,a4,16
20003e66:	04e78223          	sb	a4,68(a5)
20003e6a:	50f2                	lw	ra,60(sp)
20003e6c:	e000e7b7          	lui	a5,0xe000e
20003e70:	1157a023          	sw	s5,256(a5) # e000e100 <_eusrstack+0xc0006100>
20003e74:	1147a223          	sw	s4,260(a5)
20003e78:	54e2                	lw	s1,56(sp)
20003e7a:	4432                	lw	s0,12(sp)
20003e7c:	5952                	lw	s2,52(sp)
20003e7e:	59c2                	lw	s3,48(sp)
20003e80:	5a32                	lw	s4,44(sp)
20003e82:	5aa2                	lw	s5,40(sp)
20003e84:	5b12                	lw	s6,36(sp)
20003e86:	5b82                	lw	s7,32(sp)
20003e88:	4c72                	lw	s8,28(sp)
20003e8a:	4ce2                	lw	s9,24(sp)
20003e8c:	6121                	addi	sp,sp,64
20003e8e:	8082                	ret
20003e90:	47a5                	li	a5,9
20003e92:	06f99563          	bne	s3,a5,20003efc <FLASH_EEPROM_CMD+0x190>
20003e96:	6985                	lui	s3,0x1
20003e98:	0ff00913          	li	s2,255
20003e9c:	009906b3          	add	a3,s2,s1
20003ea0:	012b74b3          	and	s1,s6,s2
20003ea4:	94b6                	add	s1,s1,a3
20003ea6:	fff94913          	not	s2,s2
20003eaa:	009974b3          	and	s1,s2,s1
20003eae:	6b85                	lui	s7,0x1
20003eb0:	01697933          	and	s2,s2,s6
20003eb4:	6b41                	lui	s6,0x10
20003eb6:	fff98793          	addi	a5,s3,-1 # fff <process_thread_etimer_process+0x25>
20003eba:	0127f7b3          	and	a5,a5,s2
20003ebe:	e399                	bnez	a5,20003ec4 <FLASH_EEPROM_CMD+0x158>
20003ec0:	0134fc63          	bgeu	s1,s3,20003ed8 <FLASH_EEPROM_CMD+0x16c>
20003ec4:	0049d993          	srli	s3,s3,0x4
20003ec8:	47c1                	li	a5,16
20003eca:	ff37e6e3          	bltu	a5,s3,20003eb6 <FLASH_EEPROM_CMD+0x14a>
20003ece:	bf99                	j	20003e24 <FLASH_EEPROM_CMD+0xb8>
20003ed0:	6905                	lui	s2,0x1
20003ed2:	69c1                	lui	s3,0x10
20003ed4:	197d                	addi	s2,s2,-1
20003ed6:	b7d9                	j	20003e9c <FLASH_EEPROM_CMD+0x130>
20003ed8:	0d800513          	li	a0,216
20003edc:	01698863          	beq	s3,s6,20003eec <FLASH_EEPROM_CMD+0x180>
20003ee0:	02000513          	li	a0,32
20003ee4:	01798463          	beq	s3,s7,20003eec <FLASH_EEPROM_CMD+0x180>
20003ee8:	08100513          	li	a0,129
20003eec:	85ca                	mv	a1,s2
20003eee:	3bfd                	jal	20003cec <FLASH_ROM_ADDR>
20003ef0:	3591                	jal	20003d34 <FLASH_ROM_WAIT>
20003ef2:	dd21                	beqz	a0,20003e4a <FLASH_EEPROM_CMD+0xde>
20003ef4:	994e                	add	s2,s2,s3
20003ef6:	413484b3          	sub	s1,s1,s3
20003efa:	b7d9                	j	20003ec0 <FLASH_EEPROM_CMD+0x154>
20003efc:	85da                	mv	a1,s6
20003efe:	452d                	li	a0,11
20003f00:	33f5                	jal	20003cec <FLASH_ROM_ADDR>
20003f02:	94ca                	add	s1,s1,s2
20003f04:	f29900e3          	beq	s2,s1,20003e24 <FLASH_EEPROM_CMD+0xb8>
20003f08:	0905                	addi	s2,s2,1
20003f0a:	33d9                	jal	20003cd0 <FLASH_ROM_IN>
20003f0c:	fea90fa3          	sb	a0,-1(s2) # fff <process_thread_etimer_process+0x25>
20003f10:	bfd5                	j	20003f04 <FLASH_EEPROM_CMD+0x198>
20003f12:	fff98793          	addi	a5,s3,-1 # ffff <_data_lma+0xd6b7>
20003f16:	0ff7f793          	andi	a5,a5,255
20003f1a:	08fc6c63          	bltu	s8,a5,20003fb2 <.loop400+0x54>
20003f1e:	045cc703          	lbu	a4,69(s9)
20003f22:	000807b7          	lui	a5,0x80
20003f26:	02077713          	andi	a4,a4,32
20003f2a:	e319                	bnez	a4,20003f30 <FLASH_EEPROM_CMD+0x1c4>
20003f2c:	000787b7          	lui	a5,0x78
20003f30:	5579                	li	a0,-2
20003f32:	f0fb7de3          	bgeu	s6,a5,20003e4c <FLASH_EEPROM_CMD+0xe0>
20003f36:	009b0733          	add	a4,s6,s1
20003f3a:	f0e7e9e3          	bltu	a5,a4,20003e4c <FLASH_EEPROM_CMD+0xe0>
20003f3e:	4789                	li	a5,2
20003f40:	04f99063          	bne	s3,a5,20003f80 <.loop400+0x22>
20003f44:	8089                	srli	s1,s1,0x2
20003f46:	49d5                	li	s3,21
20003f48:	ec048ee3          	beqz	s1,20003e24 <FLASH_EEPROM_CMD+0xb8>
20003f4c:	85da                	mv	a1,s6
20003f4e:	4509                	li	a0,2
20003f50:	3b71                	jal	20003cec <FLASH_ROM_ADDR>
20003f52:	0911                	addi	s2,s2,4
20003f54:	ffc92703          	lw	a4,-4(s2)
20003f58:	4791                	li	a5,4
20003f5a:	80e42023          	sw	a4,-2048(s0)

20003f5e <.loop400>:
20003f5e:	80640703          	lb	a4,-2042(s0)
20003f62:	fe074ee3          	bltz	a4,20003f5e <.loop400>
20003f66:	81340323          	sb	s3,-2042(s0)
20003f6a:	17fd                	addi	a5,a5,-1
20003f6c:	fbed                	bnez	a5,20003f5e <.loop400>
20003f6e:	14fd                	addi	s1,s1,-1
20003f70:	0b11                	addi	s6,s6,4
20003f72:	c481                	beqz	s1,20003f7a <.loop400+0x1c>
20003f74:	0ffb7793          	andi	a5,s6,255
20003f78:	ffe9                	bnez	a5,20003f52 <FLASH_EEPROM_CMD+0x1e6>
20003f7a:	3b6d                	jal	20003d34 <FLASH_ROM_WAIT>
20003f7c:	f571                	bnez	a0,20003f48 <FLASH_EEPROM_CMD+0x1dc>
20003f7e:	b5f1                	j	20003e4a <FLASH_EEPROM_CMD+0xde>
20003f80:	4785                	li	a5,1
20003f82:	f4f987e3          	beq	s3,a5,20003ed0 <FLASH_EEPROM_CMD+0x164>
20003f86:	85da                	mv	a1,s6
20003f88:	452d                	li	a0,11
20003f8a:	338d                	jal	20003cec <FLASH_ROM_ADDR>
20003f8c:	fff48993          	addi	s3,s1,-1 # 7ffff <_data_lma+0x7d6b7>
20003f90:	e8048ae3          	beqz	s1,20003e24 <FLASH_EEPROM_CMD+0xb8>
20003f94:	3b35                	jal	20003cd0 <FLASH_ROM_IN>
20003f96:	0039f793          	andi	a5,s3,3
20003f9a:	eb91                	bnez	a5,20003fae <.loop400+0x50>
20003f9c:	80042683          	lw	a3,-2048(s0)
20003fa0:	00092703          	lw	a4,0(s2)
20003fa4:	00490793          	addi	a5,s2,4
20003fa8:	e6e69fe3          	bne	a3,a4,20003e26 <FLASH_EEPROM_CMD+0xba>
20003fac:	893e                	mv	s2,a5
20003fae:	84ce                	mv	s1,s3
20003fb0:	bff1                	j	20003f8c <.loop400+0x2e>
20003fb2:	47b5                	li	a5,13
20003fb4:	00f99663          	bne	s3,a5,20003fc0 <.loop400+0x62>
20003fb8:	0b900513          	li	a0,185
20003fbc:	39dd                	jal	20003cb2 <FLASH_ROM_BEG>
20003fbe:	b59d                	j	20003e24 <FLASH_EEPROM_CMD+0xb8>
20003fc0:	47b1                	li	a5,12
20003fc2:	0ab00513          	li	a0,171
20003fc6:	fef98be3          	beq	s3,a5,20003fbc <.loop400+0x5e>
20003fca:	4799                	li	a5,6
20003fcc:	02f99e63          	bne	s3,a5,20004008 <.loop400+0xaa>
20003fd0:	85da                	mv	a1,s6
20003fd2:	452d                	li	a0,11
20003fd4:	3b21                	jal	20003cec <FLASH_ROM_ADDR>
20003fd6:	4481                	li	s1,0
20003fd8:	4b8d                	li	s7,3
20003fda:	49a1                	li	s3,8
20003fdc:	39d5                	jal	20003cd0 <FLASH_ROM_IN>
20003fde:	01749663          	bne	s1,s7,20003fea <.loop400+0x8c>
20003fe2:	80042783          	lw	a5,-2048(s0)
20003fe6:	00f92023          	sw	a5,0(s2)
20003fea:	0485                	addi	s1,s1,1
20003fec:	ff3498e3          	bne	s1,s3,20003fdc <.loop400+0x7e>
20003ff0:	80042783          	lw	a5,-2048(s0)
20003ff4:	012b1713          	slli	a4,s6,0x12
20003ff8:	00075563          	bgez	a4,20004002 <.loop400+0xa4>
20003ffc:	00f91223          	sh	a5,4(s2)
20004000:	b515                	j	20003e24 <FLASH_EEPROM_CMD+0xb8>
20004002:	00f92223          	sw	a5,4(s2)
20004006:	bd39                	j	20003e24 <FLASH_EEPROM_CMD+0xb8>
20004008:	479d                	li	a5,7
2000400a:	02f99163          	bne	s3,a5,2000402c <.loop400+0xce>
2000400e:	4581                	li	a1,0
20004010:	04b00513          	li	a0,75
20004014:	39e1                	jal	20003cec <FLASH_ROM_ADDR>
20004016:	449d                	li	s1,7
20004018:	59fd                	li	s3,-1
2000401a:	395d                	jal	20003cd0 <FLASH_ROM_IN>
2000401c:	009907b3          	add	a5,s2,s1
20004020:	00a78023          	sb	a0,0(a5) # 78000 <_data_lma+0x756b8>
20004024:	14fd                	addi	s1,s1,-1
20004026:	ff349ae3          	bne	s1,s3,2000401a <.loop400+0xbc>
2000402a:	bbed                	j	20003e24 <FLASH_EEPROM_CMD+0xb8>
2000402c:	47a1                	li	a5,8
2000402e:	04f99263          	bne	s3,a5,20004072 <.loop400+0x114>
20004032:	3309                	jal	20003d34 <FLASH_ROM_WAIT>
20004034:	4481                	li	s1,0
20004036:	000b0d63          	beqz	s6,20004050 <.loop400+0xf2>
2000403a:	4785                	li	a5,1
2000403c:	04400493          	li	s1,68
20004040:	00fb0863          	beq	s6,a5,20004050 <.loop400+0xf2>
20004044:	05000493          	li	s1,80
20004048:	018b0463          	beq	s6,s8,20004050 <.loop400+0xf2>
2000404c:	03c00493          	li	s1,60
20004050:	07c57513          	andi	a0,a0,124
20004054:	dc9508e3          	beq	a0,s1,20003e24 <FLASH_EEPROM_CMD+0xb8>
20004058:	4519                	li	a0,6
2000405a:	39a1                	jal	20003cb2 <FLASH_ROM_BEG>
2000405c:	319d                	jal	20003cc2 <FLASH_ROM_END>
2000405e:	4505                	li	a0,1
20004060:	3989                	jal	20003cb2 <FLASH_ROM_BEG>
20004062:	8526                	mv	a0,s1
20004064:	39ad                	jal	20003cde <FLASH_ROM_OUT>
20004066:	4509                	li	a0,2
20004068:	399d                	jal	20003cde <FLASH_ROM_OUT>
2000406a:	31e9                	jal	20003d34 <FLASH_ROM_WAIT>
2000406c:	da051ce3          	bnez	a0,20003e24 <FLASH_EEPROM_CMD+0xb8>
20004070:	bbe9                	j	20003e4a <FLASH_EEPROM_CMD+0xde>
20004072:	da0989e3          	beqz	s3,20003e24 <FLASH_EEPROM_CMD+0xb8>
20004076:	54f1                	li	s1,-4
20004078:	b37d                	j	20003e26 <FLASH_EEPROM_CMD+0xba>
	...

Disassembly of section .text:

00000880 <handle_reset>:
handle_reset():
F:\文档\串口助手\ProtoThread\ProtoThread-Templates-main\CH573_PT_Template\obj/../Core/Startup/startup_CH573.S:112
	.weak	handle_reset
	.align	1
handle_reset:
.option push 
.option	norelax 
	la gp, __global_pointer$
     880:	20004197          	auipc	gp,0x20004
     884:	06818193          	addi	gp,gp,104 # 200048e8 <__global_pointer$>
F:\文档\串口助手\ProtoThread\ProtoThread-Templates-main\CH573_PT_Template\obj/../Core/Startup/startup_CH573.S:115
.option	pop 
1:
	la sp, _eusrstack 
     888:	20007117          	auipc	sp,0x20007
     88c:	77810113          	addi	sp,sp,1912 # 20008000 <_eusrstack>
F:\文档\串口助手\ProtoThread\ProtoThread-Templates-main\CH573_PT_Template\obj/../Core/Startup/startup_CH573.S:119

/* Load highcode code  section from flash to RAM */
2:
    la a0, _highcode_lma
     890:	00400513          	li	a0,4
F:\文档\串口助手\ProtoThread\ProtoThread-Templates-main\CH573_PT_Template\obj/../Core/Startup/startup_CH573.S:120
    la a1, _highcode_vma_start
     894:	20003597          	auipc	a1,0x20003
     898:	f6c58593          	addi	a1,a1,-148 # 20003800 <_highcode_vma_start>
F:\文档\串口助手\ProtoThread\ProtoThread-Templates-main\CH573_PT_Template\obj/../Core/Startup/startup_CH573.S:121
    la a2, _highcode_vma_end
     89c:	20003617          	auipc	a2,0x20003
     8a0:	7e060613          	addi	a2,a2,2016 # 2000407c <_highcode_vma_end>
F:\文档\串口助手\ProtoThread\ProtoThread-Templates-main\CH573_PT_Template\obj/../Core/Startup/startup_CH573.S:122
    bgeu a1, a2, 2f
     8a4:	00c5fa63          	bgeu	a1,a2,8b8 <handle_reset+0x38>
F:\文档\串口助手\ProtoThread\ProtoThread-Templates-main\CH573_PT_Template\obj/../Core/Startup/startup_CH573.S:124
1:
    lw t0, (a0)
     8a8:	00052283          	lw	t0,0(a0)
F:\文档\串口助手\ProtoThread\ProtoThread-Templates-main\CH573_PT_Template\obj/../Core/Startup/startup_CH573.S:125
    sw t0, (a1)
     8ac:	0055a023          	sw	t0,0(a1)
F:\文档\串口助手\ProtoThread\ProtoThread-Templates-main\CH573_PT_Template\obj/../Core/Startup/startup_CH573.S:126
    addi a0, a0, 4
     8b0:	0511                	addi	a0,a0,4
F:\文档\串口助手\ProtoThread\ProtoThread-Templates-main\CH573_PT_Template\obj/../Core/Startup/startup_CH573.S:127
    addi a1, a1, 4
     8b2:	0591                	addi	a1,a1,4
F:\文档\串口助手\ProtoThread\ProtoThread-Templates-main\CH573_PT_Template\obj/../Core/Startup/startup_CH573.S:128
    bltu a1, a2, 1b
     8b4:	fec5eae3          	bltu	a1,a2,8a8 <handle_reset+0x28>
F:\文档\串口助手\ProtoThread\ProtoThread-Templates-main\CH573_PT_Template\obj/../Core/Startup/startup_CH573.S:132

/* Load data section from flash to RAM */
2:
	la a0, _data_lma
     8b8:	00002517          	auipc	a0,0x2
     8bc:	09050513          	addi	a0,a0,144 # 2948 <_data_lma>
F:\文档\串口助手\ProtoThread\ProtoThread-Templates-main\CH573_PT_Template\obj/../Core/Startup/startup_CH573.S:133
	la a1, _data_vma
     8c0:	20003597          	auipc	a1,0x20003
     8c4:	7bc58593          	addi	a1,a1,1980 # 2000407c <_highcode_vma_end>
F:\文档\串口助手\ProtoThread\ProtoThread-Templates-main\CH573_PT_Template\obj/../Core/Startup/startup_CH573.S:134
	la a2, _edata
     8c8:	80c18613          	addi	a2,gp,-2036 # 200040f4 <_edata>
F:\文档\串口助手\ProtoThread\ProtoThread-Templates-main\CH573_PT_Template\obj/../Core/Startup/startup_CH573.S:135
	bgeu a1, a2, 2f
     8cc:	00c5fa63          	bgeu	a1,a2,8e0 <handle_reset+0x60>
F:\文档\串口助手\ProtoThread\ProtoThread-Templates-main\CH573_PT_Template\obj/../Core/Startup/startup_CH573.S:137
1:
	lw t0, (a0)
     8d0:	00052283          	lw	t0,0(a0)
F:\文档\串口助手\ProtoThread\ProtoThread-Templates-main\CH573_PT_Template\obj/../Core/Startup/startup_CH573.S:138
	sw t0, (a1)
     8d4:	0055a023          	sw	t0,0(a1)
F:\文档\串口助手\ProtoThread\ProtoThread-Templates-main\CH573_PT_Template\obj/../Core/Startup/startup_CH573.S:139
	addi a0, a0, 4
     8d8:	0511                	addi	a0,a0,4
F:\文档\串口助手\ProtoThread\ProtoThread-Templates-main\CH573_PT_Template\obj/../Core/Startup/startup_CH573.S:140
	addi a1, a1, 4
     8da:	0591                	addi	a1,a1,4
F:\文档\串口助手\ProtoThread\ProtoThread-Templates-main\CH573_PT_Template\obj/../Core/Startup/startup_CH573.S:141
	bltu a1, a2, 1b
     8dc:	fec5eae3          	bltu	a1,a2,8d0 <handle_reset+0x50>
F:\文档\串口助手\ProtoThread\ProtoThread-Templates-main\CH573_PT_Template\obj/../Core/Startup/startup_CH573.S:144
2:
	/* clear bss section */
	la a0, _sbss
     8e0:	80c18513          	addi	a0,gp,-2036 # 200040f4 <_edata>
F:\文档\串口助手\ProtoThread\ProtoThread-Templates-main\CH573_PT_Template\obj/../Core/Startup/startup_CH573.S:145
	la a1, _ebss
     8e4:	9b818593          	addi	a1,gp,-1608 # 200042a0 <_ebss>
F:\文档\串口助手\ProtoThread\ProtoThread-Templates-main\CH573_PT_Template\obj/../Core/Startup/startup_CH573.S:146
	bgeu a0, a1, 2f
     8e8:	00b57763          	bgeu	a0,a1,8f6 <handle_reset+0x76>
F:\文档\串口助手\ProtoThread\ProtoThread-Templates-main\CH573_PT_Template\obj/../Core/Startup/startup_CH573.S:148
1:
	sw zero, (a0)
     8ec:	00052023          	sw	zero,0(a0)
F:\文档\串口助手\ProtoThread\ProtoThread-Templates-main\CH573_PT_Template\obj/../Core/Startup/startup_CH573.S:149
	addi a0, a0, 4
     8f0:	0511                	addi	a0,a0,4
F:\文档\串口助手\ProtoThread\ProtoThread-Templates-main\CH573_PT_Template\obj/../Core/Startup/startup_CH573.S:150
	bltu a0, a1, 1b
     8f2:	feb56de3          	bltu	a0,a1,8ec <handle_reset+0x6c>
F:\文档\串口助手\ProtoThread\ProtoThread-Templates-main\CH573_PT_Template\obj/../Core/Startup/startup_CH573.S:152
2:
    li t0, 0x88
     8f6:	08800293          	li	t0,136
F:\文档\串口助手\ProtoThread\ProtoThread-Templates-main\CH573_PT_Template\obj/../Core/Startup/startup_CH573.S:153
    csrs mstatus, t0
     8fa:	3002a073          	csrs	mstatus,t0
F:\文档\串口助手\ProtoThread\ProtoThread-Templates-main\CH573_PT_Template\obj/../Core/Startup/startup_CH573.S:154
	la t0, _vector_base
     8fe:	20003297          	auipc	t0,0x20003
     902:	f0228293          	addi	t0,t0,-254 # 20003800 <_highcode_vma_start>
F:\文档\串口助手\ProtoThread\ProtoThread-Templates-main\CH573_PT_Template\obj/../Core/Startup/startup_CH573.S:155
    ori t0, t0, 1
     906:	0012e293          	ori	t0,t0,1
F:\文档\串口助手\ProtoThread\ProtoThread-Templates-main\CH573_PT_Template\obj/../Core/Startup/startup_CH573.S:156
	csrw mtvec, t0
     90a:	30529073          	csrw	mtvec,t0
F:\文档\串口助手\ProtoThread\ProtoThread-Templates-main\CH573_PT_Template\obj/../Core/Startup/startup_CH573.S:157
	la t0, main
     90e:	00000297          	auipc	t0,0x0
     912:	5fa28293          	addi	t0,t0,1530 # f08 <main>
F:\文档\串口助手\ProtoThread\ProtoThread-Templates-main\CH573_PT_Template\obj/../Core/Startup/startup_CH573.S:158
	csrw mepc, t0
     916:	34129073          	csrw	mepc,t0
F:\文档\串口助手\ProtoThread\ProtoThread-Templates-main\CH573_PT_Template\obj/../Core/Startup/startup_CH573.S:165
	/* enable vector relocation
	li t0, 0xE000ED14
	li t1, 1
	sw t1, 0(t0)*/
	
	mret
     91a:	30200073          	mret

0000091e <memset>:
memset():
     91e:	433d                	li	t1,15
     920:	872a                	mv	a4,a0
     922:	02c37363          	bgeu	t1,a2,948 <memset+0x2a>
     926:	00f77793          	andi	a5,a4,15
     92a:	efbd                	bnez	a5,9a8 <memset+0x8a>
     92c:	e5ad                	bnez	a1,996 <memset+0x78>
     92e:	ff067693          	andi	a3,a2,-16
     932:	8a3d                	andi	a2,a2,15
     934:	96ba                	add	a3,a3,a4
     936:	c30c                	sw	a1,0(a4)
     938:	c34c                	sw	a1,4(a4)
     93a:	c70c                	sw	a1,8(a4)
     93c:	c74c                	sw	a1,12(a4)
     93e:	0741                	addi	a4,a4,16
     940:	fed76be3          	bltu	a4,a3,936 <memset+0x18>
     944:	e211                	bnez	a2,948 <memset+0x2a>
     946:	8082                	ret
     948:	40c306b3          	sub	a3,t1,a2
     94c:	068a                	slli	a3,a3,0x2
     94e:	00000297          	auipc	t0,0x0
     952:	9696                	add	a3,a3,t0
     954:	00a68067          	jr	10(a3)
     958:	00b70723          	sb	a1,14(a4) # 7800e <_data_lma+0x756c6>
     95c:	00b706a3          	sb	a1,13(a4)
     960:	00b70623          	sb	a1,12(a4)
     964:	00b705a3          	sb	a1,11(a4)
     968:	00b70523          	sb	a1,10(a4)
     96c:	00b704a3          	sb	a1,9(a4)
     970:	00b70423          	sb	a1,8(a4)
     974:	00b703a3          	sb	a1,7(a4)
     978:	00b70323          	sb	a1,6(a4)
     97c:	00b702a3          	sb	a1,5(a4)
     980:	00b70223          	sb	a1,4(a4)
     984:	00b701a3          	sb	a1,3(a4)
     988:	00b70123          	sb	a1,2(a4)
     98c:	00b700a3          	sb	a1,1(a4)
     990:	00b70023          	sb	a1,0(a4)
     994:	8082                	ret
     996:	0ff5f593          	andi	a1,a1,255
     99a:	00859693          	slli	a3,a1,0x8
     99e:	8dd5                	or	a1,a1,a3
     9a0:	01059693          	slli	a3,a1,0x10
     9a4:	8dd5                	or	a1,a1,a3
     9a6:	b761                	j	92e <memset+0x10>
     9a8:	00279693          	slli	a3,a5,0x2
     9ac:	00000297          	auipc	t0,0x0
     9b0:	9696                	add	a3,a3,t0
     9b2:	8286                	mv	t0,ra
     9b4:	fa8680e7          	jalr	-88(a3)
     9b8:	8096                	mv	ra,t0
     9ba:	17c1                	addi	a5,a5,-16
     9bc:	8f1d                	sub	a4,a4,a5
     9be:	963e                	add	a2,a2,a5
     9c0:	f8c374e3          	bgeu	t1,a2,948 <memset+0x2a>
     9c4:	b7a5                	j	92c <memset+0xe>

000009c6 <st7789_RunCommand>:
st7789_RunCommand():
F:\文档\串口助手\ProtoThread\ProtoThread-Templates-main\CH573_PT_Template\obj/../Src/APP/st7789v_driver.c:73

void st7789_DisplayOff(void) {
    LCD_IO_WriteCommand(ST7789_CMD_DISPOFF);
}

void st7789_RunCommand(const st7789_command_t *command) {
     9c6:	1141                	addi	sp,sp,-16
     9c8:	c606                	sw	ra,12(sp)
     9ca:	c422                	sw	s0,8(sp)
     9cc:	c226                	sw	s1,4(sp)
     9ce:	c04a                	sw	s2,0(sp)
F:\文档\串口助手\ProtoThread\ProtoThread-Templates-main\CH573_PT_Template\obj/../Src/APP/st7789v_driver.c:74
    PRINT("Sending Command: 0x%02X\n", command->command);
     9d0:	00054583          	lbu	a1,0(a0)
F:\文档\串口助手\ProtoThread\ProtoThread-Templates-main\CH573_PT_Template\obj/../Src/APP/st7789v_driver.c:73
void st7789_RunCommand(const st7789_command_t *command) {
     9d4:	842a                	mv	s0,a0
F:\文档\串口助手\ProtoThread\ProtoThread-Templates-main\CH573_PT_Template\obj/../Src/APP/st7789v_driver.c:74
    PRINT("Sending Command: 0x%02X\n", command->command);
     9d6:	00002517          	auipc	a0,0x2
     9da:	de650513          	addi	a0,a0,-538 # 27bc <_sbrk+0x104>
     9de:	1ed000ef          	jal	ra,13ca <iprintf>
F:\文档\串口助手\ProtoThread\ProtoThread-Templates-main\CH573_PT_Template\obj/../Src/APP/st7789v_driver.c:75
    LCD_IO_WriteCommand(command->command);
     9e2:	00044503          	lbu	a0,0(s0)
     9e6:	29a5                	jal	e5e <LCD_IO_WriteCommand>
F:\文档\串口助手\ProtoThread\ProtoThread-Templates-main\CH573_PT_Template\obj/../Src/APP/st7789v_driver.c:76
    if (command->dataSize > 0) {
     9e8:	00444783          	lbu	a5,4(s0)
     9ec:	c79d                	beqz	a5,a1a <st7789_RunCommand+0x54>
F:\文档\串口助手\ProtoThread\ProtoThread-Templates-main\CH573_PT_Template\obj/../Src/APP/st7789v_driver.c:77
        PRINT("Sending Data: ");
     9ee:	00002517          	auipc	a0,0x2
     9f2:	dea50513          	addi	a0,a0,-534 # 27d8 <_sbrk+0x120>
     9f6:	1d5000ef          	jal	ra,13ca <iprintf>
F:\文档\串口助手\ProtoThread\ProtoThread-Templates-main\CH573_PT_Template\obj/../Src/APP/st7789v_driver.c:78
        for (int i = 0; i < command->dataSize; i++) {
     9fa:	4481                	li	s1,0
F:\文档\串口助手\ProtoThread\ProtoThread-Templates-main\CH573_PT_Template\obj/../Src/APP/st7789v_driver.c:79
            PRINT("0x%02X ", command->data[i]);
     9fc:	00002917          	auipc	s2,0x2
     a00:	dec90913          	addi	s2,s2,-532 # 27e8 <_sbrk+0x130>
F:\文档\串口助手\ProtoThread\ProtoThread-Templates-main\CH573_PT_Template\obj/../Src/APP/st7789v_driver.c:78 (discriminator 1)
        for (int i = 0; i < command->dataSize; i++) {
     a04:	00444783          	lbu	a5,4(s0)
     a08:	02f4c263          	blt	s1,a5,a2c <st7789_RunCommand+0x66>
F:\文档\串口助手\ProtoThread\ProtoThread-Templates-main\CH573_PT_Template\obj/../Src/APP/st7789v_driver.c:81
        }
        PRINT("\n");
     a0c:	4529                	li	a0,10
     a0e:	201000ef          	jal	ra,140e <putchar>
F:\文档\串口助手\ProtoThread\ProtoThread-Templates-main\CH573_PT_Template\obj/../Src/APP/st7789v_driver.c:82
        LCD_IO_WriteData(command->data, command->dataSize);
     a12:	00444583          	lbu	a1,4(s0)
     a16:	4408                	lw	a0,8(s0)
     a18:	2141                	jal	e98 <LCD_IO_WriteData>
F:\文档\串口助手\ProtoThread\ProtoThread-Templates-main\CH573_PT_Template\obj/../Src/APP/st7789v_driver.c:84
    }
    if (command->waitMs > 0) {
     a1a:	00245503          	lhu	a0,2(s0)
     a1e:	c105                	beqz	a0,a3e <st7789_RunCommand+0x78>
F:\文档\串口助手\ProtoThread\ProtoThread-Templates-main\CH573_PT_Template\obj/../Src/APP/st7789v_driver.c:87
        LCD_IO_Delay(command->waitMs);
    }
}
     a20:	4422                	lw	s0,8(sp)
     a22:	40b2                	lw	ra,12(sp)
     a24:	4492                	lw	s1,4(sp)
     a26:	4902                	lw	s2,0(sp)
     a28:	0141                	addi	sp,sp,16
F:\文档\串口助手\ProtoThread\ProtoThread-Templates-main\CH573_PT_Template\obj/../Src/APP/st7789v_driver.c:85
        LCD_IO_Delay(command->waitMs);
     a2a:	a165                	j	ed2 <LCD_IO_Delay>
F:\文档\串口助手\ProtoThread\ProtoThread-Templates-main\CH573_PT_Template\obj/../Src/APP/st7789v_driver.c:79 (discriminator 3)
            PRINT("0x%02X ", command->data[i]);
     a2c:	441c                	lw	a5,8(s0)
     a2e:	854a                	mv	a0,s2
     a30:	97a6                	add	a5,a5,s1
     a32:	0007c583          	lbu	a1,0(a5)
F:\文档\串口助手\ProtoThread\ProtoThread-Templates-main\CH573_PT_Template\obj/../Src/APP/st7789v_driver.c:78 (discriminator 3)
        for (int i = 0; i < command->dataSize; i++) {
     a36:	0485                	addi	s1,s1,1
F:\文档\串口助手\ProtoThread\ProtoThread-Templates-main\CH573_PT_Template\obj/../Src/APP/st7789v_driver.c:79 (discriminator 3)
            PRINT("0x%02X ", command->data[i]);
     a38:	193000ef          	jal	ra,13ca <iprintf>
     a3c:	b7e1                	j	a04 <st7789_RunCommand+0x3e>
F:\文档\串口助手\ProtoThread\ProtoThread-Templates-main\CH573_PT_Template\obj/../Src/APP/st7789v_driver.c:87
}
     a3e:	40b2                	lw	ra,12(sp)
     a40:	4422                	lw	s0,8(sp)
     a42:	4492                	lw	s1,4(sp)
     a44:	4902                	lw	s2,0(sp)
     a46:	0141                	addi	sp,sp,16
     a48:	8082                	ret

00000a4a <st7789_RunCommands>:
st7789_RunCommands():
F:\文档\串口助手\ProtoThread\ProtoThread-Templates-main\CH573_PT_Template\obj/../Src/APP/st7789v_driver.c:89

void st7789_RunCommands(const st7789_command_t *sequence) {
     a4a:	1141                	addi	sp,sp,-16
     a4c:	c422                	sw	s0,8(sp)
     a4e:	c226                	sw	s1,4(sp)
     a50:	c606                	sw	ra,12(sp)
     a52:	842a                	mv	s0,a0
F:\文档\串口助手\ProtoThread\ProtoThread-Templates-main\CH573_PT_Template\obj/../Src/APP/st7789v_driver.c:90
    while (sequence->command != ST7789_CMDLIST_END) {
     a54:	0ff00493          	li	s1,255
     a58:	00044783          	lbu	a5,0(s0)
     a5c:	00979763          	bne	a5,s1,a6a <st7789_RunCommands+0x20>
F:\文档\串口助手\ProtoThread\ProtoThread-Templates-main\CH573_PT_Template\obj/../Src/APP/st7789v_driver.c:94
        st7789_RunCommand(sequence);
        sequence++;
    }
}
     a60:	40b2                	lw	ra,12(sp)
     a62:	4422                	lw	s0,8(sp)
     a64:	4492                	lw	s1,4(sp)
     a66:	0141                	addi	sp,sp,16
     a68:	8082                	ret
F:\文档\串口助手\ProtoThread\ProtoThread-Templates-main\CH573_PT_Template\obj/../Src/APP/st7789v_driver.c:91
        st7789_RunCommand(sequence);
     a6a:	8522                	mv	a0,s0
     a6c:	3fa9                	jal	9c6 <st7789_RunCommand>
F:\文档\串口助手\ProtoThread\ProtoThread-Templates-main\CH573_PT_Template\obj/../Src/APP/st7789v_driver.c:92
        sequence++;
     a6e:	0431                	addi	s0,s0,12
     a70:	b7e5                	j	a58 <st7789_RunCommands+0xe>

00000a72 <st7789_SetWindow>:
st7789_SetWindow():
F:\文档\串口助手\ProtoThread\ProtoThread-Templates-main\CH573_PT_Template\obj/../Src/APP/st7789v_driver.c:100

void st7789_SetWindow(uint16_t xStart, uint16_t yStart, uint16_t xEnd, uint16_t yEnd) {
    uint8_t caset[4];
    uint8_t raset[4];

    caset[0] = (uint8_t)(xStart >> 8);
     a72:	00851793          	slli	a5,a0,0x8
     a76:	8121                	srli	a0,a0,0x8
     a78:	8d5d                	or	a0,a0,a5
F:\文档\串口助手\ProtoThread\ProtoThread-Templates-main\CH573_PT_Template\obj/../Src/APP/st7789v_driver.c:102
    caset[1] = (uint8_t)(xStart & 0xFF);
    caset[2] = (uint8_t)(xEnd >> 8);
     a7a:	00861793          	slli	a5,a2,0x8
     a7e:	8221                	srli	a2,a2,0x8
     a80:	8e5d                	or	a2,a2,a5
F:\文档\串口助手\ProtoThread\ProtoThread-Templates-main\CH573_PT_Template\obj/../Src/APP/st7789v_driver.c:105
    caset[3] = (uint8_t)(xEnd & 0xFF);

    raset[0] = (uint8_t)(yStart >> 8);
     a82:	00859793          	slli	a5,a1,0x8
     a86:	81a1                	srli	a1,a1,0x8
     a88:	8ddd                	or	a1,a1,a5
F:\文档\串口助手\ProtoThread\ProtoThread-Templates-main\CH573_PT_Template\obj/../Src/APP/st7789v_driver.c:107
    raset[1] = (uint8_t)(yStart & 0xFF);
    raset[2] = (uint8_t)(yEnd >> 8);
     a8a:	00869793          	slli	a5,a3,0x8
     a8e:	82a1                	srli	a3,a3,0x8
F:\文档\串口助手\ProtoThread\ProtoThread-Templates-main\CH573_PT_Template\obj/../Src/APP/st7789v_driver.c:96
void st7789_SetWindow(uint16_t xStart, uint16_t yStart, uint16_t xEnd, uint16_t yEnd) {
     a90:	715d                	addi	sp,sp,-80
F:\文档\串口助手\ProtoThread\ProtoThread-Templates-main\CH573_PT_Template\obj/../Src/APP/st7789v_driver.c:107
    raset[2] = (uint8_t)(yEnd >> 8);
     a92:	8edd                	or	a3,a3,a5
F:\文档\串口助手\ProtoThread\ProtoThread-Templates-main\CH573_PT_Template\obj/../Src/APP/st7789v_driver.c:110
    raset[3] = (uint8_t)(yEnd & 0xFF);

    st7789_command_t sequence[] = {
     a94:	02a00793          	li	a5,42
     a98:	00f10e23          	sb	a5,28(sp)
     a9c:	4791                	li	a5,4
     a9e:	02f10023          	sb	a5,32(sp)
     aa2:	0038                	addi	a4,sp,8
     aa4:	02f10623          	sb	a5,44(sp)
     aa8:	007c                	addi	a5,sp,12
F:\文档\串口助手\ProtoThread\ProtoThread-Templates-main\CH573_PT_Template\obj/../Src/APP/st7789v_driver.c:100
    caset[0] = (uint8_t)(xStart >> 8);
     aaa:	00a11423          	sh	a0,8(sp)
F:\文档\串口助手\ProtoThread\ProtoThread-Templates-main\CH573_PT_Template\obj/../Src/APP/st7789v_driver.c:110
    st7789_command_t sequence[] = {
     aae:	d23a                	sw	a4,36(sp)
     ab0:	d83e                	sw	a5,48(sp)
     ab2:	02b00713          	li	a4,43
     ab6:	57fd                	li	a5,-1
F:\文档\串口助手\ProtoThread\ProtoThread-Templates-main\CH573_PT_Template\obj/../Src/APP/st7789v_driver.c:116
        {ST7789_CMD_CASET, 0, 4, caset},
        {ST7789_CMD_RASET, 0, 4, raset},
        {ST7789_CMDLIST_END, 0, 0, NULL},
    };

    st7789_RunCommands(sequence);
     ab8:	0868                	addi	a0,sp,28
F:\文档\串口助手\ProtoThread\ProtoThread-Templates-main\CH573_PT_Template\obj/../Src/APP/st7789v_driver.c:96
void st7789_SetWindow(uint16_t xStart, uint16_t yStart, uint16_t xEnd, uint16_t yEnd) {
     aba:	c686                	sw	ra,76(sp)
F:\文档\串口助手\ProtoThread\ProtoThread-Templates-main\CH573_PT_Template\obj/../Src/APP/st7789v_driver.c:102
    caset[2] = (uint8_t)(xEnd >> 8);
     abc:	00c11523          	sh	a2,10(sp)
F:\文档\串口助手\ProtoThread\ProtoThread-Templates-main\CH573_PT_Template\obj/../Src/APP/st7789v_driver.c:105
    raset[0] = (uint8_t)(yStart >> 8);
     ac0:	00b11623          	sh	a1,12(sp)
F:\文档\串口助手\ProtoThread\ProtoThread-Templates-main\CH573_PT_Template\obj/../Src/APP/st7789v_driver.c:107
    raset[2] = (uint8_t)(yEnd >> 8);
     ac4:	00d11723          	sh	a3,14(sp)
F:\文档\串口助手\ProtoThread\ProtoThread-Templates-main\CH573_PT_Template\obj/../Src/APP/st7789v_driver.c:110
    st7789_command_t sequence[] = {
     ac8:	02e10423          	sb	a4,40(sp)
     acc:	02f10a23          	sb	a5,52(sp)
     ad0:	00011f23          	sh	zero,30(sp)
     ad4:	02011523          	sh	zero,42(sp)
     ad8:	02011b23          	sh	zero,54(sp)
     adc:	02010c23          	sb	zero,56(sp)
     ae0:	de02                	sw	zero,60(sp)
F:\文档\串口助手\ProtoThread\ProtoThread-Templates-main\CH573_PT_Template\obj/../Src/APP/st7789v_driver.c:116
    st7789_RunCommands(sequence);
     ae2:	37a5                	jal	a4a <st7789_RunCommands>
F:\文档\串口助手\ProtoThread\ProtoThread-Templates-main\CH573_PT_Template\obj/../Src/APP/st7789v_driver.c:118

    const st7789_command_t ram_wr = {ST7789_CMD_RAMWR, 0, 0, NULL};
     ae4:	02c00793          	li	a5,44
F:\文档\串口助手\ProtoThread\ProtoThread-Templates-main\CH573_PT_Template\obj/../Src/APP/st7789v_driver.c:119
    st7789_RunCommand(&ram_wr);
     ae8:	0808                	addi	a0,sp,16
F:\文档\串口助手\ProtoThread\ProtoThread-Templates-main\CH573_PT_Template\obj/../Src/APP/st7789v_driver.c:118
    const st7789_command_t ram_wr = {ST7789_CMD_RAMWR, 0, 0, NULL};
     aea:	00f10823          	sb	a5,16(sp)
     aee:	00011923          	sh	zero,18(sp)
     af2:	00010a23          	sb	zero,20(sp)
     af6:	cc02                	sw	zero,24(sp)
F:\文档\串口助手\ProtoThread\ProtoThread-Templates-main\CH573_PT_Template\obj/../Src/APP/st7789v_driver.c:119
    st7789_RunCommand(&ram_wr);
     af8:	35f9                	jal	9c6 <st7789_RunCommand>
F:\文档\串口助手\ProtoThread\ProtoThread-Templates-main\CH573_PT_Template\obj/../Src/APP/st7789v_driver.c:120
}
     afa:	40b6                	lw	ra,76(sp)
     afc:	6161                	addi	sp,sp,80
     afe:	8082                	ret

00000b00 <st7789_FillArea>:
st7789_FillArea():
F:\文档\串口助手\ProtoThread\ProtoThread-Templates-main\CH573_PT_Template\obj/../Src/APP/st7789v_driver.c:122

void st7789_FillArea(uint16_t color, uint16_t startX, uint16_t startY, uint16_t width, uint16_t height) {
     b00:	7179                	addi	sp,sp,-48
     b02:	d422                	sw	s0,40(sp)
     b04:	8436                	mv	s0,a3
F:\文档\串口助手\ProtoThread\ProtoThread-Templates-main\CH573_PT_Template\obj/../Src/APP/st7789v_driver.c:126
    uint8_t hi = (color >> 8) & 0xFF;
    uint8_t lo = (uint8_t)color;

    st7789_SetWindow(startX, startY, startX + width - 1, startY + height - 1);
     b06:	fff70693          	addi	a3,a4,-1
F:\文档\串口助手\ProtoThread\ProtoThread-Templates-main\CH573_PT_Template\obj/../Src/APP/st7789v_driver.c:122
void st7789_FillArea(uint16_t color, uint16_t startX, uint16_t startY, uint16_t width, uint16_t height) {
     b0a:	d226                	sw	s1,36(sp)
F:\文档\串口助手\ProtoThread\ProtoThread-Templates-main\CH573_PT_Template\obj/../Src/APP/st7789v_driver.c:126
    st7789_SetWindow(startX, startY, startX + width - 1, startY + height - 1);
     b0c:	96b2                	add	a3,a3,a2
F:\文档\串口助手\ProtoThread\ProtoThread-Templates-main\CH573_PT_Template\obj/../Src/APP/st7789v_driver.c:122
void st7789_FillArea(uint16_t color, uint16_t startX, uint16_t startY, uint16_t width, uint16_t height) {
     b0e:	84aa                	mv	s1,a0
     b10:	852e                	mv	a0,a1
     b12:	85b2                	mv	a1,a2
F:\文档\串口助手\ProtoThread\ProtoThread-Templates-main\CH573_PT_Template\obj/../Src/APP/st7789v_driver.c:126
    st7789_SetWindow(startX, startY, startX + width - 1, startY + height - 1);
     b14:	fff40613          	addi	a2,s0,-1
     b18:	962a                	add	a2,a2,a0
     b1a:	06c2                	slli	a3,a3,0x10
     b1c:	0642                	slli	a2,a2,0x10
F:\文档\串口助手\ProtoThread\ProtoThread-Templates-main\CH573_PT_Template\obj/../Src/APP/st7789v_driver.c:123
    uint8_t hi = (color >> 8) & 0xFF;
     b1e:	0084d793          	srli	a5,s1,0x8
F:\文档\串口助手\ProtoThread\ProtoThread-Templates-main\CH573_PT_Template\obj/../Src/APP/st7789v_driver.c:126
    st7789_SetWindow(startX, startY, startX + width - 1, startY + height - 1);
     b22:	82c1                	srli	a3,a3,0x10
     b24:	8241                	srli	a2,a2,0x10
     b26:	c63a                	sw	a4,12(sp)
F:\文档\串口助手\ProtoThread\ProtoThread-Templates-main\CH573_PT_Template\obj/../Src/APP/st7789v_driver.c:122
void st7789_FillArea(uint16_t color, uint16_t startX, uint16_t startY, uint16_t width, uint16_t height) {
     b28:	d606                	sw	ra,44(sp)
F:\文档\串口助手\ProtoThread\ProtoThread-Templates-main\CH573_PT_Template\obj/../Src/APP/st7789v_driver.c:123
    uint8_t hi = (color >> 8) & 0xFF;
     b2a:	00f10f23          	sb	a5,30(sp)
F:\文档\串口助手\ProtoThread\ProtoThread-Templates-main\CH573_PT_Template\obj/../Src/APP/st7789v_driver.c:124
    uint8_t lo = (uint8_t)color;
     b2e:	00910fa3          	sb	s1,31(sp)
F:\文档\串口助手\ProtoThread\ProtoThread-Templates-main\CH573_PT_Template\obj/../Src/APP/st7789v_driver.c:126
    st7789_SetWindow(startX, startY, startX + width - 1, startY + height - 1);
     b32:	3781                	jal	a72 <st7789_SetWindow>
F:\文档\串口助手\ProtoThread\ProtoThread-Templates-main\CH573_PT_Template\obj/../Src/APP/st7789v_driver.c:128

    PRINT("Filling Area with Color: 0x%04X\n", color);
     b34:	85a6                	mv	a1,s1
     b36:	00002517          	auipc	a0,0x2
     b3a:	bea50513          	addi	a0,a0,-1046 # 2720 <_sbrk+0x68>
     b3e:	08d000ef          	jal	ra,13ca <iprintf>
F:\文档\串口助手\ProtoThread\ProtoThread-Templates-main\CH573_PT_Template\obj/../Src/APP/st7789v_driver.c:129
    for (uint32_t i = 0; i < width * height; i++) {
     b42:	4732                	lw	a4,12(sp)
     b44:	4481                	li	s1,0
     b46:	02e40433          	mul	s0,s0,a4
F:\文档\串口助手\ProtoThread\ProtoThread-Templates-main\CH573_PT_Template\obj/../Src/APP/st7789v_driver.c:129 (discriminator 1)
     b4a:	00941763          	bne	s0,s1,b58 <st7789_FillArea+0x58>
F:\文档\串口助手\ProtoThread\ProtoThread-Templates-main\CH573_PT_Template\obj/../Src/APP/st7789v_driver.c:133
        LCD_IO_WriteData(&hi, 1);
        LCD_IO_WriteData(&lo, 1);
    }
}
     b4e:	50b2                	lw	ra,44(sp)
     b50:	5422                	lw	s0,40(sp)
     b52:	5492                	lw	s1,36(sp)
     b54:	6145                	addi	sp,sp,48
     b56:	8082                	ret
F:\文档\串口助手\ProtoThread\ProtoThread-Templates-main\CH573_PT_Template\obj/../Src/APP/st7789v_driver.c:130 (discriminator 3)
        LCD_IO_WriteData(&hi, 1);
     b58:	4585                	li	a1,1
     b5a:	01e10513          	addi	a0,sp,30
     b5e:	2e2d                	jal	e98 <LCD_IO_WriteData>
F:\文档\串口助手\ProtoThread\ProtoThread-Templates-main\CH573_PT_Template\obj/../Src/APP/st7789v_driver.c:131 (discriminator 3)
        LCD_IO_WriteData(&lo, 1);
     b60:	4585                	li	a1,1
     b62:	01f10513          	addi	a0,sp,31
     b66:	2e0d                	jal	e98 <LCD_IO_WriteData>
F:\文档\串口助手\ProtoThread\ProtoThread-Templates-main\CH573_PT_Template\obj/../Src/APP/st7789v_driver.c:129 (discriminator 3)
    for (uint32_t i = 0; i < width * height; i++) {
     b68:	0485                	addi	s1,s1,1
     b6a:	b7c5                	j	b4a <st7789_FillArea+0x4a>

00000b6c <st7789_Clear>:
st7789_Clear():
F:\文档\串口助手\ProtoThread\ProtoThread-Templates-main\CH573_PT_Template\obj/../Src/APP/st7789v_driver.c:136

void st7789_Clear(uint16_t color) {
    st7789_FillArea(color, 0, 0, ST7789_LCD_WIDTH, ST7789_LCD_HEIGHT);
     b6c:	14000713          	li	a4,320
     b70:	0f000693          	li	a3,240
     b74:	4601                	li	a2,0
     b76:	4581                	li	a1,0
     b78:	b761                	j	b00 <st7789_FillArea>

00000b7a <st7789_Init>:
st7789_Init():
F:\文档\串口助手\ProtoThread\ProtoThread-Templates-main\CH573_PT_Template\obj/../Src/APP/st7789v_driver.c:3
void st7789_Init(void) {
     b7a:	7109                	addi	sp,sp,-384
     b7c:	16112e23          	sw	ra,380(sp)
F:\文档\串口助手\ProtoThread\ProtoThread-Templates-main\CH573_PT_Template\obj/../Src/APP/st7789v_driver.c:4
    LCD_IO_Init();
     b80:	2c41                	jal	e10 <LCD_IO_Init>
F:\文档\串口助手\ProtoThread\ProtoThread-Templates-main\CH573_PT_Template\obj/../Src/APP/st7789v_driver.c:16
    const st7789_command_t initSequence[] = {
     b82:	0c800713          	li	a4,200
     b86:	04e11f23          	sh	a4,94(sp)
     b8a:	4745                	li	a4,17
     b8c:	06e10423          	sb	a4,104(sp)
F:\文档\串口助手\ProtoThread\ProtoThread-Templates-main\CH573_PT_Template\obj/../Src/APP/st7789v_driver.c:6
    const uint8_t caset[4] = {
     b90:	ef0007b7          	lui	a5,0xef000
F:\文档\串口助手\ProtoThread\ProtoThread-Templates-main\CH573_PT_Template\obj/../Src/APP/st7789v_driver.c:16
    const st7789_command_t initSequence[] = {
     b94:	07800713          	li	a4,120
F:\文档\串口助手\ProtoThread\ProtoThread-Templates-main\CH573_PT_Template\obj/../Src/APP/st7789v_driver.c:6
    const uint8_t caset[4] = {
     b98:	c63e                	sw	a5,12(sp)
F:\文档\串口助手\ProtoThread\ProtoThread-Templates-main\CH573_PT_Template\obj/../Src/APP/st7789v_driver.c:16
    const st7789_command_t initSequence[] = {
     b9a:	06e11523          	sh	a4,106(sp)
F:\文档\串口助手\ProtoThread\ProtoThread-Templates-main\CH573_PT_Template\obj/../Src/APP/st7789v_driver.c:11
    const uint8_t raset[4] = {
     b9e:	80818793          	addi	a5,gp,-2040 # 200040f0 <_impure_ptr+0x8>
F:\文档\串口助手\ProtoThread\ProtoThread-Templates-main\CH573_PT_Template\obj/../Src/APP/st7789v_driver.c:16
    const st7789_command_t initSequence[] = {
     ba2:	fdf00713          	li	a4,-33
F:\文档\串口助手\ProtoThread\ProtoThread-Templates-main\CH573_PT_Template\obj/../Src/APP/st7789v_driver.c:11
    const uint8_t raset[4] = {
     ba6:	439c                	lw	a5,0(a5)
F:\文档\串口助手\ProtoThread\ProtoThread-Templates-main\CH573_PT_Template\obj/../Src/APP/st7789v_driver.c:16
    const st7789_command_t initSequence[] = {
     ba8:	06e10a23          	sb	a4,116(sp)
     bac:	03600713          	li	a4,54
     bb0:	08e10023          	sb	a4,128(sp)
     bb4:	00002717          	auipc	a4,0x2
     bb8:	b2470713          	addi	a4,a4,-1244 # 26d8 <_sbrk+0x20>
     bbc:	c53a                	sw	a4,136(sp)
     bbe:	03a00713          	li	a4,58
F:\文档\串口助手\ProtoThread\ProtoThread-Templates-main\CH573_PT_Template\obj/../Src/APP/st7789v_driver.c:11
    const uint8_t raset[4] = {
     bc2:	c83e                	sw	a5,16(sp)
F:\文档\串口助手\ProtoThread\ProtoThread-Templates-main\CH573_PT_Template\obj/../Src/APP/st7789v_driver.c:16
    const st7789_command_t initSequence[] = {
     bc4:	08e10623          	sb	a4,140(sp)
     bc8:	47c1                	li	a5,16
     bca:	00002717          	auipc	a4,0x2
     bce:	b7a70713          	addi	a4,a4,-1158 # 2744 <_sbrk+0x8c>
     bd2:	04f10823          	sb	a5,80(sp)
     bd6:	cb3a                	sw	a4,148(sp)
     bd8:	47a9                	li	a5,10
     bda:	02100713          	li	a4,33
     bde:	04f11923          	sh	a5,82(sp)
     be2:	08e10c23          	sb	a4,152(sp)
     be6:	4785                	li	a5,1
     be8:	02a00713          	li	a4,42
     bec:	04f10e23          	sb	a5,92(sp)
     bf0:	08f10223          	sb	a5,132(sp)
     bf4:	08f10823          	sb	a5,144(sp)
     bf8:	0ae10223          	sb	a4,164(sp)
     bfc:	04010a23          	sb	zero,84(sp)
     c00:	4711                	li	a4,4
     c02:	cc82                	sw	zero,88(sp)
     c04:	06010023          	sb	zero,96(sp)
     c08:	d282                	sw	zero,100(sp)
     c0a:	06010623          	sb	zero,108(sp)
     c0e:	d882                	sw	zero,112(sp)
     c10:	06011b23          	sh	zero,118(sp)
     c14:	06010c23          	sb	zero,120(sp)
     c18:	de82                	sw	zero,124(sp)
     c1a:	08011123          	sh	zero,130(sp)
     c1e:	08011723          	sh	zero,142(sp)
     c22:	08011d23          	sh	zero,154(sp)
     c26:	08010e23          	sb	zero,156(sp)
     c2a:	d102                	sw	zero,160(sp)
     c2c:	0a011323          	sh	zero,166(sp)
     c30:	0ae10423          	sb	a4,168(sp)
     c34:	0ae10a23          	sb	a4,180(sp)
     c38:	0818                	addi	a4,sp,16
     c3a:	dd3a                	sw	a4,184(sp)
     c3c:	fb200713          	li	a4,-78
     c40:	0ae10e23          	sb	a4,188(sp)
     c44:	4715                	li	a4,5
     c46:	0074                	addi	a3,sp,12
     c48:	0ce10023          	sb	a4,192(sp)
     c4c:	00002717          	auipc	a4,0x2
     c50:	a9070713          	addi	a4,a4,-1392 # 26dc <_sbrk+0x24>
     c54:	d736                	sw	a3,172(sp)
     c56:	c3ba                	sw	a4,196(sp)
     c58:	02b00693          	li	a3,43
     c5c:	fb700713          	li	a4,-73
     c60:	0ad10823          	sb	a3,176(sp)
     c64:	0ce10423          	sb	a4,200(sp)
     c68:	fc000693          	li	a3,-64
     c6c:	00002717          	auipc	a4,0x2
     c70:	adc70713          	addi	a4,a4,-1316 # 2748 <_sbrk+0x90>
     c74:	c9ba                	sw	a4,208(sp)
     c76:	0ed10623          	sb	a3,236(sp)
     c7a:	fbb00713          	li	a4,-69
     c7e:	00002697          	auipc	a3,0x2
     c82:	ad668693          	addi	a3,a3,-1322 # 2754 <_sbrk+0x9c>
     c86:	0ce10a23          	sb	a4,212(sp)
     c8a:	dbb6                	sw	a3,244(sp)
     c8c:	00002717          	auipc	a4,0x2
     c90:	ac070713          	addi	a4,a4,-1344 # 274c <_sbrk+0x94>
     c94:	fc300693          	li	a3,-61
     c98:	cfba                	sw	a4,220(sp)
     c9a:	0ed10c23          	sb	a3,248(sp)
     c9e:	fc200713          	li	a4,-62
     ca2:	00002697          	auipc	a3,0x2
     ca6:	ab668693          	addi	a3,a3,-1354 # 2758 <_sbrk+0xa0>
     caa:	0ee10023          	sb	a4,224(sp)
     cae:	10d12023          	sw	a3,256(sp)
     cb2:	00002717          	auipc	a4,0x2
     cb6:	a9e70713          	addi	a4,a4,-1378 # 2750 <_sbrk+0x98>
     cba:	fc400693          	li	a3,-60
     cbe:	0cf10623          	sb	a5,204(sp)
     cc2:	0cf10c23          	sb	a5,216(sp)
     cc6:	0ef10223          	sb	a5,228(sp)
     cca:	d5ba                	sw	a4,232(sp)
     ccc:	0ef10823          	sb	a5,240(sp)
     cd0:	0ef10e23          	sb	a5,252(sp)
     cd4:	10d10223          	sb	a3,260(sp)
     cd8:	0a011923          	sh	zero,178(sp)
     cdc:	0a011f23          	sh	zero,190(sp)
     ce0:	0c011523          	sh	zero,202(sp)
     ce4:	0c011b23          	sh	zero,214(sp)
     ce8:	0e011123          	sh	zero,226(sp)
     cec:	0e011723          	sh	zero,238(sp)
     cf0:	0e011d23          	sh	zero,250(sp)
     cf4:	10011323          	sh	zero,262(sp)
     cf8:	10f10423          	sb	a5,264(sp)
     cfc:	12f10023          	sb	a5,288(sp)
     d00:	12f10623          	sb	a5,300(sp)
     d04:	5781                	li	a5,-32
     d06:	12f10a23          	sb	a5,308(sp)
     d0a:	00002697          	auipc	a3,0x2
     d0e:	c0268693          	addi	a3,a3,-1022 # 290c <__sf_fake_stdout+0x24>
     d12:	47b9                	li	a5,14
     d14:	10d12623          	sw	a3,268(sp)
     d18:	12f10c23          	sb	a5,312(sp)
     d1c:	14f10223          	sb	a5,324(sp)
     d20:	fd000693          	li	a3,-48
     d24:	00002797          	auipc	a5,0x2
     d28:	a5078793          	addi	a5,a5,-1456 # 2774 <_sbrk+0xbc>
     d2c:	10d10823          	sb	a3,272(sp)
     d30:	14f12423          	sw	a5,328(sp)
     d34:	4689                	li	a3,2
     d36:	02900793          	li	a5,41
     d3a:	10d10a23          	sb	a3,276(sp)
     d3e:	14f10623          	sb	a5,332(sp)
     d42:	00002697          	auipc	a3,0x2
     d46:	a1a68693          	addi	a3,a3,-1510 # 275c <_sbrk+0xa4>
     d4a:	06400793          	li	a5,100
     d4e:	10d12c23          	sw	a3,280(sp)
     d52:	14f11723          	sh	a5,334(sp)
     d56:	fc600693          	li	a3,-58
     d5a:	02c00793          	li	a5,44
     d5e:	10d10e23          	sb	a3,284(sp)
     d62:	12e12823          	sw	a4,304(sp)
     d66:	14f10c23          	sb	a5,344(sp)
     d6a:	00002697          	auipc	a3,0x2
     d6e:	9f668693          	addi	a3,a3,-1546 # 2760 <_sbrk+0xa8>
     d72:	00002717          	auipc	a4,0x2
     d76:	9f270713          	addi	a4,a4,-1550 # 2764 <_sbrk+0xac>
     d7a:	03200793          	li	a5,50
     d7e:	12d12223          	sw	a3,292(sp)
     d82:	12e12e23          	sw	a4,316(sp)
     d86:	02600693          	li	a3,38
     d8a:	5705                	li	a4,-31
     d8c:	14f11d23          	sh	a5,346(sp)
     d90:	57fd                	li	a5,-1
     d92:	12d10423          	sb	a3,296(sp)
     d96:	14e10023          	sb	a4,320(sp)
     d9a:	16f10223          	sb	a5,356(sp)
     d9e:	10011923          	sh	zero,274(sp)
     da2:	10011f23          	sh	zero,286(sp)
     da6:	12011523          	sh	zero,298(sp)
     daa:	12011b23          	sh	zero,310(sp)
     dae:	14011123          	sh	zero,322(sp)
     db2:	14010823          	sb	zero,336(sp)
     db6:	14012a23          	sw	zero,340(sp)
     dba:	14010e23          	sb	zero,348(sp)
     dbe:	16012023          	sw	zero,352(sp)
     dc2:	16011323          	sh	zero,358(sp)
     dc6:	16010423          	sb	zero,360(sp)
F:\文档\串口助手\ProtoThread\ProtoThread-Templates-main\CH573_PT_Template\obj/../Src/APP/st7789v_driver.c:43
    PRINT("Running Init Sequence...\n");
     dca:	00002517          	auipc	a0,0x2
     dce:	9ba50513          	addi	a0,a0,-1606 # 2784 <_sbrk+0xcc>
F:\文档\串口助手\ProtoThread\ProtoThread-Templates-main\CH573_PT_Template\obj/../Src/APP/st7789v_driver.c:16
    const st7789_command_t initSequence[] = {
     dd2:	16012623          	sw	zero,364(sp)
F:\文档\串口助手\ProtoThread\ProtoThread-Templates-main\CH573_PT_Template\obj/../Src/APP/st7789v_driver.c:43
    PRINT("Running Init Sequence...\n");
     dd6:	740000ef          	jal	ra,1516 <puts>
F:\文档\串口助手\ProtoThread\ProtoThread-Templates-main\CH573_PT_Template\obj/../Src/APP/st7789v_driver.c:44
    st7789_RunCommands(initSequence);
     dda:	0888                	addi	a0,sp,80
     ddc:	31bd                	jal	a4a <st7789_RunCommands>
F:\文档\串口助手\ProtoThread\ProtoThread-Templates-main\CH573_PT_Template\obj/../Src/APP/st7789v_driver.c:46
    LCD_IO_Delay(10);
     dde:	4529                	li	a0,10
     de0:	28cd                	jal	ed2 <LCD_IO_Delay>
F:\文档\串口助手\ProtoThread\ProtoThread-Templates-main\CH573_PT_Template\obj/../Src/APP/st7789v_driver.c:47
    st7789_Clear(ST7789_WHITE);
     de2:	6541                	lui	a0,0x10
     de4:	157d                	addi	a0,a0,-1
     de6:	3359                	jal	b6c <st7789_Clear>
F:\文档\串口助手\ProtoThread\ProtoThread-Templates-main\CH573_PT_Template\obj/../Src/APP/st7789v_driver.c:49
    const st7789_command_t initSequence2[] = {
     de8:	03c00613          	li	a2,60
     dec:	00002597          	auipc	a1,0x2
     df0:	8f858593          	addi	a1,a1,-1800 # 26e4 <_sbrk+0x2c>
     df4:	0848                	addi	a0,sp,20
     df6:	2b39                	jal	1314 <memcpy>
F:\文档\串口助手\ProtoThread\ProtoThread-Templates-main\CH573_PT_Template\obj/../Src/APP/st7789v_driver.c:57
    PRINT("Running Init Sequence 2...\n");
     df8:	00002517          	auipc	a0,0x2
     dfc:	9a850513          	addi	a0,a0,-1624 # 27a0 <_sbrk+0xe8>
     e00:	716000ef          	jal	ra,1516 <puts>
F:\文档\串口助手\ProtoThread\ProtoThread-Templates-main\CH573_PT_Template\obj/../Src/APP/st7789v_driver.c:58
    st7789_RunCommands(initSequence2);
     e04:	0848                	addi	a0,sp,20
     e06:	3191                	jal	a4a <st7789_RunCommands>
F:\文档\串口助手\ProtoThread\ProtoThread-Templates-main\CH573_PT_Template\obj/../Src/APP/st7789v_driver.c:59
}
     e08:	17c12083          	lw	ra,380(sp)
     e0c:	6119                	addi	sp,sp,384
     e0e:	8082                	ret

00000e10 <LCD_IO_Init>:
LCD_IO_Init():
F:\文档\串口助手\ProtoThread\ProtoThread-Templates-main\CH573_PT_Template\obj/../Src/APP/ui_test_main2.c:12
#define ST7789V_CLK_PIN     GPIO_Pin_13 // A13 - SPI Clock Pin
#define ST7789V_MOSI_PIN    GPIO_Pin_14 // A14 - SPI MOSI Pin
#define ST7789V_BL_PIN      GPIO_Pin_4  // A4 - Backlight Control Pin

void LCD_IO_Init(void) {
    GPIOA_ModeCfg(ST7789V_RES_PIN | ST7789V_DC_PIN | ST7789V_CS_PIN | ST7789V_CLK_PIN | ST7789V_MOSI_PIN | ST7789V_BL_PIN, GPIO_ModeOut_PP_5mA);
     e10:	653d                	lui	a0,0xf
F:\文档\串口助手\ProtoThread\ProtoThread-Templates-main\CH573_PT_Template\obj/../Src/APP/ui_test_main2.c:11
void LCD_IO_Init(void) {
     e12:	1141                	addi	sp,sp,-16
F:\文档\串口助手\ProtoThread\ProtoThread-Templates-main\CH573_PT_Template\obj/../Src/APP/ui_test_main2.c:12
    GPIOA_ModeCfg(ST7789V_RES_PIN | ST7789V_DC_PIN | ST7789V_CS_PIN | ST7789V_CLK_PIN | ST7789V_MOSI_PIN | ST7789V_BL_PIN, GPIO_ModeOut_PP_5mA);
     e14:	458d                	li	a1,3
     e16:	03050513          	addi	a0,a0,48 # f030 <_data_lma+0xc6e8>
F:\文档\串口助手\ProtoThread\ProtoThread-Templates-main\CH573_PT_Template\obj/../Src/APP/ui_test_main2.c:11
void LCD_IO_Init(void) {
     e1a:	c606                	sw	ra,12(sp)
     e1c:	c422                	sw	s0,8(sp)
     e1e:	c226                	sw	s1,4(sp)
F:\文档\串口助手\ProtoThread\ProtoThread-Templates-main\CH573_PT_Template\obj/../Src/APP/ui_test_main2.c:13
    GPIOA_ResetBits(ST7789V_RES_PIN); // Reset the display
     e20:	40001437          	lui	s0,0x40001
F:\文档\串口助手\ProtoThread\ProtoThread-Templates-main\CH573_PT_Template\obj/../Src/APP/ui_test_main2.c:12
    GPIOA_ModeCfg(ST7789V_RES_PIN | ST7789V_DC_PIN | ST7789V_CS_PIN | ST7789V_CLK_PIN | ST7789V_MOSI_PIN | ST7789V_BL_PIN, GPIO_ModeOut_PP_5mA);
     e24:	2cf1                	jal	1100 <GPIOA_ModeCfg>
F:\文档\串口助手\ProtoThread\ProtoThread-Templates-main\CH573_PT_Template\obj/../Src/APP/ui_test_main2.c:13
    GPIOA_ResetBits(ST7789V_RES_PIN); // Reset the display
     e26:	0ac42703          	lw	a4,172(s0) # 400010ac <_eusrstack+0x1fff90ac>
     e2a:	64a1                	lui	s1,0x8
LCD_IO_Delay():
F:\文档\串口助手\ProtoThread\ProtoThread-Templates-main\CH573_PT_Template\obj/../Src/APP/ui_test_main2.c:36
    SPI0_MasterTrans(data, length);
    GPIOA_SetBits(ST7789V_CS_PIN);  // CS高电平
}

void LCD_IO_Delay(uint32_t delay) {
    DelayMs(delay);
     e2c:	03200513          	li	a0,50
LCD_IO_Init():
F:\文档\串口助手\ProtoThread\ProtoThread-Templates-main\CH573_PT_Template\obj/../Src/APP/ui_test_main2.c:13
    GPIOA_ResetBits(ST7789V_RES_PIN); // Reset the display
     e30:	8f45                	or	a4,a4,s1
     e32:	0ae42623          	sw	a4,172(s0)
LCD_IO_Delay():
F:\文档\串口助手\ProtoThread\ProtoThread-Templates-main\CH573_PT_Template\obj/../Src/APP/ui_test_main2.c:36
    DelayMs(delay);
     e36:	20003097          	auipc	ra,0x20003
     e3a:	e3e080e7          	jalr	-450(ra) # 20003c74 <mDelaymS>
LCD_IO_Init():
F:\文档\串口助手\ProtoThread\ProtoThread-Templates-main\CH573_PT_Template\obj/../Src/APP/ui_test_main2.c:15
    GPIOA_SetBits(ST7789V_RES_PIN);
     e3e:	0a842783          	lw	a5,168(s0)
F:\文档\串口助手\ProtoThread\ProtoThread-Templates-main\CH573_PT_Template\obj/../Src/APP/ui_test_main2.c:19
}
     e42:	40b2                	lw	ra,12(sp)
F:\文档\串口助手\ProtoThread\ProtoThread-Templates-main\CH573_PT_Template\obj/../Src/APP/ui_test_main2.c:15
    GPIOA_SetBits(ST7789V_RES_PIN);
     e44:	8fc5                	or	a5,a5,s1
     e46:	0af42423          	sw	a5,168(s0)
F:\文档\串口助手\ProtoThread\ProtoThread-Templates-main\CH573_PT_Template\obj/../Src/APP/ui_test_main2.c:16
    GPIOA_ResetBits(ST7789V_BL_PIN); // Turn on backlight (低电平点亮)
     e4a:	0ac42783          	lw	a5,172(s0)
F:\文档\串口助手\ProtoThread\ProtoThread-Templates-main\CH573_PT_Template\obj/../Src/APP/ui_test_main2.c:19
}
     e4e:	4492                	lw	s1,4(sp)
F:\文档\串口助手\ProtoThread\ProtoThread-Templates-main\CH573_PT_Template\obj/../Src/APP/ui_test_main2.c:16
    GPIOA_ResetBits(ST7789V_BL_PIN); // Turn on backlight (低电平点亮)
     e50:	0107e793          	ori	a5,a5,16
     e54:	0af42623          	sw	a5,172(s0)
F:\文档\串口助手\ProtoThread\ProtoThread-Templates-main\CH573_PT_Template\obj/../Src/APP/ui_test_main2.c:19
}
     e58:	4422                	lw	s0,8(sp)
     e5a:	0141                	addi	sp,sp,16
F:\文档\串口助手\ProtoThread\ProtoThread-Templates-main\CH573_PT_Template\obj/../Src/APP/ui_test_main2.c:18
    SPI0_MasterDefInit();
     e5c:	a6a9                	j	11a6 <SPI0_MasterDefInit>

00000e5e <LCD_IO_WriteCommand>:
LCD_IO_WriteCommand():
F:\文档\串口助手\ProtoThread\ProtoThread-Templates-main\CH573_PT_Template\obj/../Src/APP/ui_test_main2.c:21
void LCD_IO_WriteCommand(uint8_t command) {
     e5e:	1141                	addi	sp,sp,-16
     e60:	c422                	sw	s0,8(sp)
F:\文档\串口助手\ProtoThread\ProtoThread-Templates-main\CH573_PT_Template\obj/../Src/APP/ui_test_main2.c:22
    GPIOA_ResetBits(ST7789V_CS_PIN);  // CS低电平
     e62:	40001437          	lui	s0,0x40001
     e66:	0ac42703          	lw	a4,172(s0) # 400010ac <_eusrstack+0x1fff90ac>
F:\文档\串口助手\ProtoThread\ProtoThread-Templates-main\CH573_PT_Template\obj/../Src/APP/ui_test_main2.c:21
void LCD_IO_WriteCommand(uint8_t command) {
     e6a:	c226                	sw	s1,4(sp)
F:\文档\串口助手\ProtoThread\ProtoThread-Templates-main\CH573_PT_Template\obj/../Src/APP/ui_test_main2.c:22
    GPIOA_ResetBits(ST7789V_CS_PIN);  // CS低电平
     e6c:	6485                	lui	s1,0x1
F:\文档\串口助手\ProtoThread\ProtoThread-Templates-main\CH573_PT_Template\obj/../Src/APP/ui_test_main2.c:21
void LCD_IO_WriteCommand(uint8_t command) {
     e6e:	c606                	sw	ra,12(sp)
F:\文档\串口助手\ProtoThread\ProtoThread-Templates-main\CH573_PT_Template\obj/../Src/APP/ui_test_main2.c:22
    GPIOA_ResetBits(ST7789V_CS_PIN);  // CS低电平
     e70:	8f45                	or	a4,a4,s1
     e72:	0ae42623          	sw	a4,172(s0)
F:\文档\串口助手\ProtoThread\ProtoThread-Templates-main\CH573_PT_Template\obj/../Src/APP/ui_test_main2.c:23
    GPIOA_ResetBits(ST7789V_DC_PIN);  // DC低电平，表示命令
     e76:	0ac42703          	lw	a4,172(s0)
     e7a:	02076713          	ori	a4,a4,32
     e7e:	0ae42623          	sw	a4,172(s0)
F:\文档\串口助手\ProtoThread\ProtoThread-Templates-main\CH573_PT_Template\obj/../Src/APP/ui_test_main2.c:24
    SPI0_MasterSendByte(command);
     e82:	2e99                	jal	11d8 <SPI0_MasterSendByte>
F:\文档\串口助手\ProtoThread\ProtoThread-Templates-main\CH573_PT_Template\obj/../Src/APP/ui_test_main2.c:25
    GPIOA_SetBits(ST7789V_CS_PIN);  // CS高电平
     e84:	0a842783          	lw	a5,168(s0)
F:\文档\串口助手\ProtoThread\ProtoThread-Templates-main\CH573_PT_Template\obj/../Src/APP/ui_test_main2.c:26
}
     e88:	40b2                	lw	ra,12(sp)
F:\文档\串口助手\ProtoThread\ProtoThread-Templates-main\CH573_PT_Template\obj/../Src/APP/ui_test_main2.c:25
    GPIOA_SetBits(ST7789V_CS_PIN);  // CS高电平
     e8a:	8fc5                	or	a5,a5,s1
     e8c:	0af42423          	sw	a5,168(s0)
F:\文档\串口助手\ProtoThread\ProtoThread-Templates-main\CH573_PT_Template\obj/../Src/APP/ui_test_main2.c:26
}
     e90:	4422                	lw	s0,8(sp)
     e92:	4492                	lw	s1,4(sp)
     e94:	0141                	addi	sp,sp,16
     e96:	8082                	ret

00000e98 <LCD_IO_WriteData>:
LCD_IO_WriteData():
F:\文档\串口助手\ProtoThread\ProtoThread-Templates-main\CH573_PT_Template\obj/../Src/APP/ui_test_main2.c:28
void LCD_IO_WriteData(uint8_t *data, uint8_t length) {
     e98:	1141                	addi	sp,sp,-16
     e9a:	c422                	sw	s0,8(sp)
F:\文档\串口助手\ProtoThread\ProtoThread-Templates-main\CH573_PT_Template\obj/../Src/APP/ui_test_main2.c:29
    GPIOA_ResetBits(ST7789V_CS_PIN);  // CS低电平
     e9c:	40001437          	lui	s0,0x40001
     ea0:	0ac42703          	lw	a4,172(s0) # 400010ac <_eusrstack+0x1fff90ac>
F:\文档\串口助手\ProtoThread\ProtoThread-Templates-main\CH573_PT_Template\obj/../Src/APP/ui_test_main2.c:28
void LCD_IO_WriteData(uint8_t *data, uint8_t length) {
     ea4:	c226                	sw	s1,4(sp)
F:\文档\串口助手\ProtoThread\ProtoThread-Templates-main\CH573_PT_Template\obj/../Src/APP/ui_test_main2.c:29
    GPIOA_ResetBits(ST7789V_CS_PIN);  // CS低电平
     ea6:	6485                	lui	s1,0x1
F:\文档\串口助手\ProtoThread\ProtoThread-Templates-main\CH573_PT_Template\obj/../Src/APP/ui_test_main2.c:28
void LCD_IO_WriteData(uint8_t *data, uint8_t length) {
     ea8:	c606                	sw	ra,12(sp)
F:\文档\串口助手\ProtoThread\ProtoThread-Templates-main\CH573_PT_Template\obj/../Src/APP/ui_test_main2.c:29
    GPIOA_ResetBits(ST7789V_CS_PIN);  // CS低电平
     eaa:	8f45                	or	a4,a4,s1
     eac:	0ae42623          	sw	a4,172(s0)
F:\文档\串口助手\ProtoThread\ProtoThread-Templates-main\CH573_PT_Template\obj/../Src/APP/ui_test_main2.c:30
    GPIOA_SetBits(ST7789V_DC_PIN);    // DC高电平，表示数据
     eb0:	0a842703          	lw	a4,168(s0)
     eb4:	02076713          	ori	a4,a4,32
     eb8:	0ae42423          	sw	a4,168(s0)
F:\文档\串口助手\ProtoThread\ProtoThread-Templates-main\CH573_PT_Template\obj/../Src/APP/ui_test_main2.c:31
    SPI0_MasterTrans(data, length);
     ebc:	2681                	jal	11fc <SPI0_MasterTrans>
F:\文档\串口助手\ProtoThread\ProtoThread-Templates-main\CH573_PT_Template\obj/../Src/APP/ui_test_main2.c:32
    GPIOA_SetBits(ST7789V_CS_PIN);  // CS高电平
     ebe:	0a842783          	lw	a5,168(s0)
F:\文档\串口助手\ProtoThread\ProtoThread-Templates-main\CH573_PT_Template\obj/../Src/APP/ui_test_main2.c:33
}
     ec2:	40b2                	lw	ra,12(sp)
F:\文档\串口助手\ProtoThread\ProtoThread-Templates-main\CH573_PT_Template\obj/../Src/APP/ui_test_main2.c:32
    GPIOA_SetBits(ST7789V_CS_PIN);  // CS高电平
     ec4:	8fc5                	or	a5,a5,s1
     ec6:	0af42423          	sw	a5,168(s0)
F:\文档\串口助手\ProtoThread\ProtoThread-Templates-main\CH573_PT_Template\obj/../Src/APP/ui_test_main2.c:33
}
     eca:	4422                	lw	s0,8(sp)
     ecc:	4492                	lw	s1,4(sp)
     ece:	0141                	addi	sp,sp,16
     ed0:	8082                	ret

00000ed2 <LCD_IO_Delay>:
LCD_IO_Delay():
F:\文档\串口助手\ProtoThread\ProtoThread-Templates-main\CH573_PT_Template\obj/../Src/APP/ui_test_main2.c:36
    DelayMs(delay);
     ed2:	0542                	slli	a0,a0,0x10
     ed4:	8141                	srli	a0,a0,0x10
     ed6:	20003317          	auipc	t1,0x20003
     eda:	d9e30067          	jr	-610(t1) # 20003c74 <mDelaymS>

00000ede <DebugInit>:
DebugInit():
F:\文档\串口助手\ProtoThread\ProtoThread-Templates-main\CH573_PT_Template\obj/../Src/APP/ui_test_main2.c:40
}

void DebugInit(void) {
    GPIOA_SetBits(GPIO_Pin_9);
     ede:	40001737          	lui	a4,0x40001
     ee2:	0a872783          	lw	a5,168(a4) # 400010a8 <_eusrstack+0x1fff90a8>
F:\文档\串口助手\ProtoThread\ProtoThread-Templates-main\CH573_PT_Template\obj/../Src/APP/ui_test_main2.c:39
void DebugInit(void) {
     ee6:	1141                	addi	sp,sp,-16
     ee8:	c606                	sw	ra,12(sp)
F:\文档\串口助手\ProtoThread\ProtoThread-Templates-main\CH573_PT_Template\obj/../Src/APP/ui_test_main2.c:40
    GPIOA_SetBits(GPIO_Pin_9);
     eea:	2007e793          	ori	a5,a5,512
     eee:	0af72423          	sw	a5,168(a4)
F:\文档\串口助手\ProtoThread\ProtoThread-Templates-main\CH573_PT_Template\obj/../Src/APP/ui_test_main2.c:41
    GPIOA_ModeCfg(GPIO_Pin_8, GPIO_ModeIN_PU);
     ef2:	4585                	li	a1,1
     ef4:	10000513          	li	a0,256
     ef8:	2421                	jal	1100 <GPIOA_ModeCfg>
F:\文档\串口助手\ProtoThread\ProtoThread-Templates-main\CH573_PT_Template\obj/../Src/APP/ui_test_main2.c:42
    GPIOA_ModeCfg(GPIO_Pin_9, GPIO_ModeOut_PP_5mA);
     efa:	458d                	li	a1,3
     efc:	20000513          	li	a0,512
     f00:	2401                	jal	1100 <GPIOA_ModeCfg>
F:\文档\串口助手\ProtoThread\ProtoThread-Templates-main\CH573_PT_Template\obj/../Src/APP/ui_test_main2.c:44
    UART1_DefInit();
}
     f02:	40b2                	lw	ra,12(sp)
     f04:	0141                	addi	sp,sp,16
F:\文档\串口助手\ProtoThread\ProtoThread-Templates-main\CH573_PT_Template\obj/../Src/APP/ui_test_main2.c:43
    UART1_DefInit();
     f06:	aef1                	j	12e2 <UART1_DefInit>

00000f08 <main>:
main():
F:\文档\串口助手\ProtoThread\ProtoThread-Templates-main\CH573_PT_Template\obj/../Src/APP/ui_test_main2.c:46

int main() {
     f08:	1141                	addi	sp,sp,-16
F:\文档\串口助手\ProtoThread\ProtoThread-Templates-main\CH573_PT_Template\obj/../Src/APP/ui_test_main2.c:47
    SetSysClock(CLK_SOURCE_PLL_60MHz);
     f0a:	04800513          	li	a0,72
F:\文档\串口助手\ProtoThread\ProtoThread-Templates-main\CH573_PT_Template\obj/../Src/APP/ui_test_main2.c:46
int main() {
     f0e:	c606                	sw	ra,12(sp)
     f10:	c422                	sw	s0,8(sp)
F:\文档\串口助手\ProtoThread\ProtoThread-Templates-main\CH573_PT_Template\obj/../Src/APP/ui_test_main2.c:47
    SetSysClock(CLK_SOURCE_PLL_60MHz);
     f12:	20003097          	auipc	ra,0x20003
     f16:	c12080e7          	jalr	-1006(ra) # 20003b24 <SetSysClock>
F:\文档\串口助手\ProtoThread\ProtoThread-Templates-main\CH573_PT_Template\obj/../Src/APP/ui_test_main2.c:49

    DebugInit();
     f1a:	37d1                	jal	ede <DebugInit>
F:\文档\串口助手\ProtoThread\ProtoThread-Templates-main\CH573_PT_Template\obj/../Src/APP/ui_test_main2.c:50
    PRINT("Start @ChipID=%02X\n", R8_CHIP_ID);
     f1c:	400017b7          	lui	a5,0x40001
     f20:	0417c583          	lbu	a1,65(a5) # 40001041 <_eusrstack+0x1fff9041>
     f24:	00002517          	auipc	a0,0x2
     f28:	8d450513          	addi	a0,a0,-1836 # 27f8 <_sbrk+0x140>
F:\文档\串口助手\ProtoThread\ProtoThread-Templates-main\CH573_PT_Template\obj/../Src/APP/ui_test_main2.c:60
    SPI0_MasterDefInit();
    st7789_Init();

    PRINT("Initialization complete.\n");

    st7789_Clear(ST7789_WHITE);  // 清空屏幕为白色
     f2c:	6441                	lui	s0,0x10
F:\文档\串口助手\ProtoThread\ProtoThread-Templates-main\CH573_PT_Template\obj/../Src/APP/ui_test_main2.c:50
    PRINT("Start @ChipID=%02X\n", R8_CHIP_ID);
     f2e:	2971                	jal	13ca <iprintf>
F:\文档\串口助手\ProtoThread\ProtoThread-Templates-main\CH573_PT_Template\obj/../Src/APP/ui_test_main2.c:52
    PRINT("1.spi0 mul master mode send data ...\n");
     f30:	00002517          	auipc	a0,0x2
     f34:	8dc50513          	addi	a0,a0,-1828 # 280c <_sbrk+0x154>
     f38:	2bf9                	jal	1516 <puts>
F:\文档\串口助手\ProtoThread\ProtoThread-Templates-main\CH573_PT_Template\obj/../Src/APP/ui_test_main2.c:53
    DelayMs(100);
     f3a:	06400513          	li	a0,100
     f3e:	20003097          	auipc	ra,0x20003
     f42:	d36080e7          	jalr	-714(ra) # 20003c74 <mDelaymS>
F:\文档\串口助手\ProtoThread\ProtoThread-Templates-main\CH573_PT_Template\obj/../Src/APP/ui_test_main2.c:55
    SPI0_MasterDefInit();
     f46:	2485                	jal	11a6 <SPI0_MasterDefInit>
F:\文档\串口助手\ProtoThread\ProtoThread-Templates-main\CH573_PT_Template\obj/../Src/APP/ui_test_main2.c:56
    st7789_Init();
     f48:	390d                	jal	b7a <st7789_Init>
F:\文档\串口助手\ProtoThread\ProtoThread-Templates-main\CH573_PT_Template\obj/../Src/APP/ui_test_main2.c:58
    PRINT("Initialization complete.\n");
     f4a:	00002517          	auipc	a0,0x2
     f4e:	8ea50513          	addi	a0,a0,-1814 # 2834 <_sbrk+0x17c>
     f52:	23d1                	jal	1516 <puts>
F:\文档\串口助手\ProtoThread\ProtoThread-Templates-main\CH573_PT_Template\obj/../Src/APP/ui_test_main2.c:60
    st7789_Clear(ST7789_WHITE);  // 清空屏幕为白色
     f54:	fff40513          	addi	a0,s0,-1 # ffff <_data_lma+0xd6b7>
     f58:	3911                	jal	b6c <st7789_Clear>
F:\文档\串口助手\ProtoThread\ProtoThread-Templates-main\CH573_PT_Template\obj/../Src/APP/ui_test_main2.c:61
    PRINT("Screen cleared.\n");
     f5a:	00002517          	auipc	a0,0x2
     f5e:	8f650513          	addi	a0,a0,-1802 # 2850 <_sbrk+0x198>
     f62:	2b55                	jal	1516 <puts>
F:\文档\串口助手\ProtoThread\ProtoThread-Templates-main\CH573_PT_Template\obj/../Src/APP/ui_test_main2.c:63

    st7789_FillArea(ST7789_RED, 50, 50, 100, 100);  // 在屏幕上绘制一个红色矩形
     f64:	06400713          	li	a4,100
     f68:	06400693          	li	a3,100
     f6c:	03200613          	li	a2,50
     f70:	03200593          	li	a1,50
     f74:	80040513          	addi	a0,s0,-2048
     f78:	3661                	jal	b00 <st7789_FillArea>
F:\文档\串口助手\ProtoThread\ProtoThread-Templates-main\CH573_PT_Template\obj/../Src/APP/ui_test_main2.c:64
    PRINT("Drew a red rectangle.\n");
     f7a:	00002517          	auipc	a0,0x2
     f7e:	8e650513          	addi	a0,a0,-1818 # 2860 <_sbrk+0x1a8>
     f82:	2b51                	jal	1516 <puts>
F:\文档\串口助手\ProtoThread\ProtoThread-Templates-main\CH573_PT_Template\obj/../Src/APP/ui_test_main2.c:66

    PRINT("END ...\n");
     f84:	00002517          	auipc	a0,0x2
     f88:	8f450513          	addi	a0,a0,-1804 # 2878 <_sbrk+0x1c0>
     f8c:	2369                	jal	1516 <puts>
F:\文档\串口助手\ProtoThread\ProtoThread-Templates-main\CH573_PT_Template\obj/../Src/APP/ui_test_main2.c:67 (discriminator 1)
    while (1);
     f8e:	a001                	j	f8e <main+0x86>

00000f90 <update_time>:
update_time():
F:\文档\串口助手\ProtoThread\ProtoThread-Templates-main\CH573_PT_Template\obj/../OS/ProtoThread-Core/sys/etimer.c:59
{
     f90:	1141                	addi	sp,sp,-16
     f92:	c422                	sw	s0,8(sp)
F:\文档\串口助手\ProtoThread\ProtoThread-Templates-main\CH573_PT_Template\obj/../OS/ProtoThread-Core/sys/etimer.c:64
  if(timerlist == NULL) {
     f94:	81418413          	addi	s0,gp,-2028 # 200040fc <timerlist>
     f98:	401c                	lw	a5,0(s0)
F:\文档\串口助手\ProtoThread\ProtoThread-Templates-main\CH573_PT_Template\obj/../OS/ProtoThread-Core/sys/etimer.c:59
{
     f9a:	c606                	sw	ra,12(sp)
F:\文档\串口助手\ProtoThread\ProtoThread-Templates-main\CH573_PT_Template\obj/../OS/ProtoThread-Core/sys/etimer.c:64
  if(timerlist == NULL) {
     f9c:	e799                	bnez	a5,faa <update_time+0x1a>
F:\文档\串口助手\ProtoThread\ProtoThread-Templates-main\CH573_PT_Template\obj/../OS/ProtoThread-Core/sys/etimer.c:65
    next_expiration = 0;
     f9e:	8001a823          	sw	zero,-2032(gp) # 200040f8 <next_expiration>
F:\文档\串口助手\ProtoThread\ProtoThread-Templates-main\CH573_PT_Template\obj/../OS/ProtoThread-Core/sys/etimer.c:78
}
     fa2:	40b2                	lw	ra,12(sp)
     fa4:	4422                	lw	s0,8(sp)
     fa6:	0141                	addi	sp,sp,16
     fa8:	8082                	ret
F:\文档\串口助手\ProtoThread\ProtoThread-Templates-main\CH573_PT_Template\obj/../OS/ProtoThread-Core/sys/etimer.c:67
    now = protothread_clock_time();
     faa:	20003097          	auipc	ra,0x20003
     fae:	912080e7          	jalr	-1774(ra) # 200038bc <protothread_clock_time>
F:\文档\串口助手\ProtoThread\ProtoThread-Templates-main\CH573_PT_Template\obj/../OS/ProtoThread-Core/sys/etimer.c:68
    t = timerlist;
     fb2:	4018                	lw	a4,0(s0)
F:\文档\串口助手\ProtoThread\ProtoThread-Templates-main\CH573_PT_Template\obj/../OS/ProtoThread-Core/sys/etimer.c:70
    tdist = t->timer.start + t->timer.interval - now;
     fb4:	4354                	lw	a3,4(a4)
     fb6:	431c                	lw	a5,0(a4)
     fb8:	97b6                	add	a5,a5,a3
F:\文档\串口助手\ProtoThread\ProtoThread-Templates-main\CH573_PT_Template\obj/../OS/ProtoThread-Core/sys/etimer.c:71
    for(t = t->next; t != NULL; t = t->next) {
     fba:	4714                	lw	a3,8(a4)
F:\文档\串口助手\ProtoThread\ProtoThread-Templates-main\CH573_PT_Template\obj/../OS/ProtoThread-Core/sys/etimer.c:70
    tdist = t->timer.start + t->timer.interval - now;
     fbc:	8f89                	sub	a5,a5,a0
F:\文档\串口助手\ProtoThread\ProtoThread-Templates-main\CH573_PT_Template\obj/../OS/ProtoThread-Core/sys/etimer.c:71
    for(t = t->next; t != NULL; t = t->next) {
     fbe:	e689                	bnez	a3,fc8 <update_time+0x38>
F:\文档\串口助手\ProtoThread\ProtoThread-Templates-main\CH573_PT_Template\obj/../OS/ProtoThread-Core/sys/etimer.c:76
    next_expiration = now + tdist;
     fc0:	953e                	add	a0,a0,a5
     fc2:	80a1a823          	sw	a0,-2032(gp) # 200040f8 <next_expiration>
F:\文档\串口助手\ProtoThread\ProtoThread-Templates-main\CH573_PT_Template\obj/../OS/ProtoThread-Core/sys/etimer.c:78
}
     fc6:	bff1                	j	fa2 <update_time+0x12>
F:\文档\串口助手\ProtoThread\ProtoThread-Templates-main\CH573_PT_Template\obj/../OS/ProtoThread-Core/sys/etimer.c:72
      if(t->timer.start + t->timer.interval - now < tdist) {
     fc8:	4298                	lw	a4,0(a3)
     fca:	42d0                	lw	a2,4(a3)
     fcc:	9732                	add	a4,a4,a2
     fce:	8f09                	sub	a4,a4,a0
     fd0:	00f77363          	bgeu	a4,a5,fd6 <update_time+0x46>
     fd4:	87ba                	mv	a5,a4
F:\文档\串口助手\ProtoThread\ProtoThread-Templates-main\CH573_PT_Template\obj/../OS/ProtoThread-Core/sys/etimer.c:71
    for(t = t->next; t != NULL; t = t->next) {
     fd6:	4694                	lw	a3,8(a3)
     fd8:	b7dd                	j	fbe <update_time+0x2e>

00000fda <process_thread_etimer_process>:
process_thread_etimer_process():
F:\文档\串口助手\ProtoThread\ProtoThread-Templates-main\CH573_PT_Template\obj/../OS/ProtoThread-Core/sys/etimer.c:84
  PROCESS_BEGIN();
     fda:	00055783          	lhu	a5,0(a0)
F:\文档\串口助手\ProtoThread\ProtoThread-Templates-main\CH573_PT_Template\obj/../OS/ProtoThread-Core/sys/etimer.c:81
{
     fde:	1101                	addi	sp,sp,-32
     fe0:	ca26                	sw	s1,20(sp)
     fe2:	ce06                	sw	ra,28(sp)
     fe4:	cc22                	sw	s0,24(sp)
     fe6:	c84a                	sw	s2,16(sp)
     fe8:	c64e                	sw	s3,12(sp)
     fea:	84aa                	mv	s1,a0
     fec:	cf99                	beqz	a5,100a <process_thread_etimer_process+0x30>
     fee:	05900713          	li	a4,89
     ff2:	0ae79663          	bne	a5,a4,109e <process_thread_etimer_process+0xc4>
F:\文档\串口助手\ProtoThread\ProtoThread-Templates-main\CH573_PT_Template\obj/../OS/ProtoThread-Core/sys/etimer.c:91
    if(ev == PROCESS_EVENT_EXITED) {
     ff6:	08700793          	li	a5,135
     ffa:	04f59a63          	bne	a1,a5,104e <process_thread_etimer_process+0x74>
     ffe:	81418793          	addi	a5,gp,-2028 # 200040fc <timerlist>
    1002:	439c                	lw	a5,0(a5)
    1004:	4701                	li	a4,0
F:\文档\串口助手\ProtoThread\ProtoThread-Templates-main\CH573_PT_Template\obj/../OS/ProtoThread-Core/sys/etimer.c:94
      while(timerlist != NULL && timerlist->p == p) {
    1006:	e39d                	bnez	a5,102c <process_thread_etimer_process+0x52>
    1008:	c319                	beqz	a4,100e <process_thread_etimer_process+0x34>
F:\文档\串口助手\ProtoThread\ProtoThread-Templates-main\CH573_PT_Template\obj/../OS/ProtoThread-Core/sys/etimer.c:86 (discriminator 2)
  timerlist = NULL;
    100a:	8001aa23          	sw	zero,-2028(gp) # 200040fc <timerlist>
F:\文档\串口助手\ProtoThread\ProtoThread-Templates-main\CH573_PT_Template\obj/../OS/ProtoThread-Core/sys/etimer.c:89
    PROCESS_YIELD();
    100e:	05900793          	li	a5,89
    1012:	00f49023          	sh	a5,0(s1) # 1000 <process_thread_etimer_process+0x26>
    1016:	4505                	li	a0,1
F:\文档\串口助手\ProtoThread\ProtoThread-Templates-main\CH573_PT_Template\obj/../OS/ProtoThread-Core/sys/etimer.c:142 (discriminator 1)
}
    1018:	40f2                	lw	ra,28(sp)
    101a:	4462                	lw	s0,24(sp)
    101c:	44d2                	lw	s1,20(sp)
    101e:	4942                	lw	s2,16(sp)
    1020:	49b2                	lw	s3,12(sp)
    1022:	6105                	addi	sp,sp,32
    1024:	8082                	ret
    1026:	4705                	li	a4,1
F:\文档\串口助手\ProtoThread\ProtoThread-Templates-main\CH573_PT_Template\obj/../OS/ProtoThread-Core/sys/etimer.c:95
        timerlist = timerlist->next;
    1028:	87ae                	mv	a5,a1
    102a:	bff1                	j	1006 <process_thread_etimer_process+0x2c>
F:\文档\串口助手\ProtoThread\ProtoThread-Templates-main\CH573_PT_Template\obj/../OS/ProtoThread-Core/sys/etimer.c:94 (discriminator 1)
      while(timerlist != NULL && timerlist->p == p) {
    102c:	47d4                	lw	a3,12(a5)
    102e:	478c                	lw	a1,8(a5)
    1030:	fec68be3          	beq	a3,a2,1026 <process_thread_etimer_process+0x4c>
    1034:	c319                	beqz	a4,103a <process_thread_etimer_process+0x60>
    1036:	80f1aa23          	sw	a5,-2028(gp) # 200040fc <timerlist>
F:\文档\串口助手\ProtoThread\ProtoThread-Templates-main\CH573_PT_Template\obj/../OS/ProtoThread-Core/sys/etimer.c:100
        while(t->next != NULL) {
    103a:	4798                	lw	a4,8(a5)
    103c:	db69                	beqz	a4,100e <process_thread_etimer_process+0x34>
F:\文档\串口助手\ProtoThread\ProtoThread-Templates-main\CH573_PT_Template\obj/../OS/ProtoThread-Core/sys/etimer.c:101
          if(t->next->p == p) {
    103e:	4754                	lw	a3,12(a4)
    1040:	00c69563          	bne	a3,a2,104a <process_thread_etimer_process+0x70>
F:\文档\串口助手\ProtoThread\ProtoThread-Templates-main\CH573_PT_Template\obj/../OS/ProtoThread-Core/sys/etimer.c:102
            t->next = t->next->next;
    1044:	4718                	lw	a4,8(a4)
    1046:	c798                	sw	a4,8(a5)
    1048:	bfcd                	j	103a <process_thread_etimer_process+0x60>
    104a:	87ba                	mv	a5,a4
    104c:	b7fd                	j	103a <process_thread_etimer_process+0x60>
F:\文档\串口助手\ProtoThread\ProtoThread-Templates-main\CH573_PT_Template\obj/../OS/ProtoThread-Core/sys/etimer.c:109
    } else if(ev != PROCESS_EVENT_POLL) {
    104e:	08200793          	li	a5,130
    1052:	faf59ee3          	bne	a1,a5,100e <process_thread_etimer_process+0x34>
F:\文档\串口助手\ProtoThread\ProtoThread-Templates-main\CH573_PT_Template\obj/../OS/ProtoThread-Core/sys/etimer.c:117
    for(t = timerlist; t != NULL; t = t->next) {
    1056:	81418993          	addi	s3,gp,-2028 # 200040fc <timerlist>
    105a:	0009a403          	lw	s0,0(s3)
F:\文档\串口助手\ProtoThread\ProtoThread-Templates-main\CH573_PT_Template\obj/../OS/ProtoThread-Core/sys/etimer.c:115
    u = NULL;
    105e:	4901                	li	s2,0
F:\文档\串口助手\ProtoThread\ProtoThread-Templates-main\CH573_PT_Template\obj/../OS/ProtoThread-Core/sys/etimer.c:117 (discriminator 1)
    for(t = timerlist; t != NULL; t = t->next) {
    1060:	d45d                	beqz	s0,100e <process_thread_etimer_process+0x34>
F:\文档\串口助手\ProtoThread\ProtoThread-Templates-main\CH573_PT_Template\obj/../OS/ProtoThread-Core/sys/etimer.c:118
      if(timer_expired(&t->timer)) {
    1062:	8522                	mv	a0,s0
    1064:	28a5                	jal	10dc <timer_expired>
    1066:	c90d                	beqz	a0,1098 <process_thread_etimer_process+0xbe>
F:\文档\串口助手\ProtoThread\ProtoThread-Templates-main\CH573_PT_Template\obj/../OS/ProtoThread-Core/sys/etimer.c:119
        if(process_post(t->p, PROCESS_EVENT_TIMER, t) == PROCESS_ERR_OK) {
    1068:	4448                	lw	a0,12(s0)
    106a:	8622                	mv	a2,s0
    106c:	08800593          	li	a1,136
    1070:	281d                	jal	10a6 <process_post>
    1072:	ed19                	bnez	a0,1090 <process_thread_etimer_process+0xb6>
F:\文档\串口助手\ProtoThread\ProtoThread-Templates-main\CH573_PT_Template\obj/../OS/ProtoThread-Core/sys/etimer.c:124
          t->p = PROCESS_NONE;
    1074:	00042623          	sw	zero,12(s0)
F:\文档\串口助手\ProtoThread\ProtoThread-Templates-main\CH573_PT_Template\obj/../OS/ProtoThread-Core/sys/etimer.c:125
          if(u != NULL) {
    1078:	441c                	lw	a5,8(s0)
    107a:	00090863          	beqz	s2,108a <process_thread_etimer_process+0xb0>
F:\文档\串口助手\ProtoThread\ProtoThread-Templates-main\CH573_PT_Template\obj/../OS/ProtoThread-Core/sys/etimer.c:126
            u->next = t->next;
    107e:	00f92423          	sw	a5,8(s2)
F:\文档\串口助手\ProtoThread\ProtoThread-Templates-main\CH573_PT_Template\obj/../OS/ProtoThread-Core/sys/etimer.c:130
          t->next = NULL;
    1082:	00042423          	sw	zero,8(s0)
F:\文档\串口助手\ProtoThread\ProtoThread-Templates-main\CH573_PT_Template\obj/../OS/ProtoThread-Core/sys/etimer.c:131
          update_time();
    1086:	3729                	jal	f90 <update_time>
F:\文档\串口助手\ProtoThread\ProtoThread-Templates-main\CH573_PT_Template\obj/../OS/ProtoThread-Core/sys/etimer.c:132
          goto again;
    1088:	bfc9                	j	105a <process_thread_etimer_process+0x80>
F:\文档\串口助手\ProtoThread\ProtoThread-Templates-main\CH573_PT_Template\obj/../OS/ProtoThread-Core/sys/etimer.c:128
            timerlist = t->next;
    108a:	80f1aa23          	sw	a5,-2028(gp) # 200040fc <timerlist>
    108e:	bfd5                	j	1082 <process_thread_etimer_process+0xa8>
F:\文档\串口助手\ProtoThread\ProtoThread-Templates-main\CH573_PT_Template\obj/../OS/ProtoThread-Core/sys/etimer.c:134
          etimer_request_poll();
    1090:	20003097          	auipc	ra,0x20003
    1094:	872080e7          	jalr	-1934(ra) # 20003902 <etimer_request_poll>
F:\文档\串口助手\ProtoThread\ProtoThread-Templates-main\CH573_PT_Template\obj/../OS/ProtoThread-Core/sys/etimer.c:117 (discriminator 2)
    for(t = timerlist; t != NULL; t = t->next) {
    1098:	8922                	mv	s2,s0
    109a:	4400                	lw	s0,8(s0)
    109c:	b7d1                	j	1060 <process_thread_etimer_process+0x86>
F:\文档\串口助手\ProtoThread\ProtoThread-Templates-main\CH573_PT_Template\obj/../OS/ProtoThread-Core/sys/etimer.c:141
  PROCESS_END();
    109e:	00051023          	sh	zero,0(a0)
    10a2:	450d                	li	a0,3
    10a4:	bf95                	j	1018 <process_thread_etimer_process+0x3e>

000010a6 <process_post>:
process_post():
F:\文档\串口助手\ProtoThread\ProtoThread-Templates-main\CH573_PT_Template\obj/../OS/ProtoThread-Core/sys/process.c:328
  if(nevents == PROCESS_CONF_NUMEVENTS) {
    10a6:	8191c703          	lbu	a4,-2023(gp) # 20004101 <nevents>
    10aa:	02000793          	li	a5,32
    10ae:	02f70563          	beq	a4,a5,10d8 <process_post+0x32>
F:\文档\串口助手\ProtoThread\ProtoThread-Templates-main\CH573_PT_Template\obj/../OS/ProtoThread-Core/sys/process.c:339
  snum = (process_num_events_t)(fevent + nevents) % PROCESS_CONF_NUMEVENTS;
    10b2:	8181c783          	lbu	a5,-2024(gp) # 20004100 <fevent>
    10b6:	97ba                	add	a5,a5,a4
F:\文档\串口助手\ProtoThread\ProtoThread-Templates-main\CH573_PT_Template\obj/../OS/ProtoThread-Core/sys/process.c:340
  events[snum].ev = ev;
    10b8:	46b1                	li	a3,12
    10ba:	8bfd                	andi	a5,a5,31
    10bc:	02d787b3          	mul	a5,a5,a3
    10c0:	83418693          	addi	a3,gp,-1996 # 2000411c <events>
F:\文档\串口助手\ProtoThread\ProtoThread-Templates-main\CH573_PT_Template\obj/../OS/ProtoThread-Core/sys/process.c:343
  ++nevents;
    10c4:	0705                	addi	a4,a4,1
F:\文档\串口助手\ProtoThread\ProtoThread-Templates-main\CH573_PT_Template\obj/../OS/ProtoThread-Core/sys/process.c:340
  events[snum].ev = ev;
    10c6:	97b6                	add	a5,a5,a3
F:\文档\串口助手\ProtoThread\ProtoThread-Templates-main\CH573_PT_Template\obj/../OS/ProtoThread-Core/sys/process.c:342
  events[snum].p = p;
    10c8:	c788                	sw	a0,8(a5)
F:\文档\串口助手\ProtoThread\ProtoThread-Templates-main\CH573_PT_Template\obj/../OS/ProtoThread-Core/sys/process.c:340
  events[snum].ev = ev;
    10ca:	00b78023          	sb	a1,0(a5)
F:\文档\串口助手\ProtoThread\ProtoThread-Templates-main\CH573_PT_Template\obj/../OS/ProtoThread-Core/sys/process.c:341
  events[snum].data = data;
    10ce:	c3d0                	sw	a2,4(a5)
F:\文档\串口助手\ProtoThread\ProtoThread-Templates-main\CH573_PT_Template\obj/../OS/ProtoThread-Core/sys/process.c:345
  return PROCESS_ERR_OK;
    10d0:	4501                	li	a0,0
F:\文档\串口助手\ProtoThread\ProtoThread-Templates-main\CH573_PT_Template\obj/../OS/ProtoThread-Core/sys/process.c:343
  ++nevents;
    10d2:	80e18ca3          	sb	a4,-2023(gp) # 20004101 <nevents>
F:\文档\串口助手\ProtoThread\ProtoThread-Templates-main\CH573_PT_Template\obj/../OS/ProtoThread-Core/sys/process.c:345
  return PROCESS_ERR_OK;
    10d6:	8082                	ret
F:\文档\串口助手\ProtoThread\ProtoThread-Templates-main\CH573_PT_Template\obj/../OS/ProtoThread-Core/sys/process.c:336
    return PROCESS_ERR_FULL;
    10d8:	4505                	li	a0,1
F:\文档\串口助手\ProtoThread\ProtoThread-Templates-main\CH573_PT_Template\obj/../OS/ProtoThread-Core/sys/process.c:346
}
    10da:	8082                	ret

000010dc <timer_expired>:
timer_expired():
F:\文档\串口助手\ProtoThread\ProtoThread-Templates-main\CH573_PT_Template\obj/../OS/ProtoThread-Core/sys/timer.c:123
 * \return Non-zero if the timer has expired, zero otherwise.
 *
 */
int
timer_expired(struct timer *t)
{
    10dc:	1141                	addi	sp,sp,-16
    10de:	c422                	sw	s0,8(sp)
    10e0:	c606                	sw	ra,12(sp)
    10e2:	842a                	mv	s0,a0
F:\文档\串口助手\ProtoThread\ProtoThread-Templates-main\CH573_PT_Template\obj/../OS/ProtoThread-Core/sys/timer.c:126
  /* Note: Can not return diff >= t->interval so we add 1 to diff and return
     t->interval < diff - required to avoid an internal error in mspgcc. */
  clock_time_t diff = (protothread_clock_time() - t->start) + 1;
    10e4:	20002097          	auipc	ra,0x20002
    10e8:	7d8080e7          	jalr	2008(ra) # 200038bc <protothread_clock_time>
    10ec:	401c                	lw	a5,0(s0)
F:\文档\串口助手\ProtoThread\ProtoThread-Templates-main\CH573_PT_Template\obj/../OS/ProtoThread-Core/sys/timer.c:129
  return t->interval < diff;

}
    10ee:	40b2                	lw	ra,12(sp)
F:\文档\串口助手\ProtoThread\ProtoThread-Templates-main\CH573_PT_Template\obj/../OS/ProtoThread-Core/sys/timer.c:126
  clock_time_t diff = (protothread_clock_time() - t->start) + 1;
    10f0:	8d1d                	sub	a0,a0,a5
F:\文档\串口助手\ProtoThread\ProtoThread-Templates-main\CH573_PT_Template\obj/../OS/ProtoThread-Core/sys/timer.c:127
  return t->interval < diff;
    10f2:	405c                	lw	a5,4(s0)
F:\文档\串口助手\ProtoThread\ProtoThread-Templates-main\CH573_PT_Template\obj/../OS/ProtoThread-Core/sys/timer.c:129
}
    10f4:	4422                	lw	s0,8(sp)
F:\文档\串口助手\ProtoThread\ProtoThread-Templates-main\CH573_PT_Template\obj/../OS/ProtoThread-Core/sys/timer.c:126
  clock_time_t diff = (protothread_clock_time() - t->start) + 1;
    10f6:	0505                	addi	a0,a0,1
F:\文档\串口助手\ProtoThread\ProtoThread-Templates-main\CH573_PT_Template\obj/../OS/ProtoThread-Core/sys/timer.c:129
}
    10f8:	00a7b533          	sltu	a0,a5,a0
    10fc:	0141                	addi	sp,sp,16
    10fe:	8082                	ret

00001100 <GPIOA_ModeCfg>:
GPIOA_ModeCfg():
F:\文档\串口助手\ProtoThread\ProtoThread-Templates-main\CH573_PT_Template\obj/../Drivers/StdPeriphDriver/CH57x_gpio.c:27
					GPIO_ModeOut_PP_20mA  -  推挽输出最大20mA				   				
* Return         : None
*******************************************************************************/
void GPIOA_ModeCfg( UINT32 pin, GPIOModeTypeDef mode )
{	
    switch(mode)
    1100:	4791                	li	a5,4
    1102:	02b7ee63          	bltu	a5,a1,113e <GPIOA_ModeCfg+0x3e>
    1106:	00001717          	auipc	a4,0x1
    110a:	77a70713          	addi	a4,a4,1914 # 2880 <_sbrk+0x1c8>
    110e:	058a                	slli	a1,a1,0x2
    1110:	95ba                	add	a1,a1,a4
    1112:	419c                	lw	a5,0(a1)
    1114:	97ba                	add	a5,a5,a4
    1116:	8782                	jr	a5
F:\文档\串口助手\ProtoThread\ProtoThread-Templates-main\CH573_PT_Template\obj/../Drivers/StdPeriphDriver/CH57x_gpio.c:30
    {
        case GPIO_ModeIN_Floating:
            R32_PA_PD_DRV &= ~pin;
    1118:	400017b7          	lui	a5,0x40001
    111c:	0b47a703          	lw	a4,180(a5) # 400010b4 <_eusrstack+0x1fff90b4>
    1120:	fff54513          	not	a0,a0
    1124:	8f69                	and	a4,a4,a0
    1126:	0ae7aa23          	sw	a4,180(a5)
F:\文档\串口助手\ProtoThread\ProtoThread-Templates-main\CH573_PT_Template\obj/../Drivers/StdPeriphDriver/CH57x_gpio.c:31
            R32_PA_PU     &= ~pin;
    112a:	0b07a703          	lw	a4,176(a5)
F:\文档\串口助手\ProtoThread\ProtoThread-Templates-main\CH573_PT_Template\obj/../Drivers/StdPeriphDriver/CH57x_gpio.c:43
            R32_PA_DIR    &= ~pin;
            break;

        case GPIO_ModeIN_PD:
            R32_PA_PD_DRV |= pin;
            R32_PA_PU     &= ~pin;
    112e:	8f69                	and	a4,a4,a0
    1130:	0ae7a823          	sw	a4,176(a5)
F:\文档\串口助手\ProtoThread\ProtoThread-Templates-main\CH573_PT_Template\obj/../Drivers/StdPeriphDriver/CH57x_gpio.c:44
            R32_PA_DIR    &= ~pin;
    1134:	0a07a703          	lw	a4,160(a5)
    1138:	8d79                	and	a0,a0,a4
F:\文档\串口助手\ProtoThread\ProtoThread-Templates-main\CH573_PT_Template\obj/../Drivers/StdPeriphDriver/CH57x_gpio.c:54
            R32_PA_DIR    |= pin;
            break;

        case GPIO_ModeOut_PP_20mA:
            R32_PA_PD_DRV |= pin;
            R32_PA_DIR    |= pin;
    113a:	0aa7a023          	sw	a0,160(a5)
F:\文档\串口助手\ProtoThread\ProtoThread-Templates-main\CH573_PT_Template\obj/../Drivers/StdPeriphDriver/CH57x_gpio.c:60
            break;

        default:
            break;
    }
}
    113e:	8082                	ret
F:\文档\串口助手\ProtoThread\ProtoThread-Templates-main\CH573_PT_Template\obj/../Drivers/StdPeriphDriver/CH57x_gpio.c:36
            R32_PA_PD_DRV &= ~pin;
    1140:	400017b7          	lui	a5,0x40001
    1144:	0b47a683          	lw	a3,180(a5) # 400010b4 <_eusrstack+0x1fff90b4>
    1148:	fff54713          	not	a4,a0
    114c:	8ef9                	and	a3,a3,a4
    114e:	0ad7aa23          	sw	a3,180(a5)
F:\文档\串口助手\ProtoThread\ProtoThread-Templates-main\CH573_PT_Template\obj/../Drivers/StdPeriphDriver/CH57x_gpio.c:37
            R32_PA_PU     |= pin;
    1152:	0b07a683          	lw	a3,176(a5)
    1156:	8d55                	or	a0,a0,a3
    1158:	0aa7a823          	sw	a0,176(a5)
F:\文档\串口助手\ProtoThread\ProtoThread-Templates-main\CH573_PT_Template\obj/../Drivers/StdPeriphDriver/CH57x_gpio.c:38
            R32_PA_DIR    &= ~pin;
    115c:	0a07a683          	lw	a3,160(a5)
    1160:	8f75                	and	a4,a4,a3
    1162:	0ae7a023          	sw	a4,160(a5)
F:\文档\串口助手\ProtoThread\ProtoThread-Templates-main\CH573_PT_Template\obj/../Drivers/StdPeriphDriver/CH57x_gpio.c:39
            break;
    1166:	8082                	ret
F:\文档\串口助手\ProtoThread\ProtoThread-Templates-main\CH573_PT_Template\obj/../Drivers/StdPeriphDriver/CH57x_gpio.c:42
            R32_PA_PD_DRV |= pin;
    1168:	400017b7          	lui	a5,0x40001
    116c:	0b47a703          	lw	a4,180(a5) # 400010b4 <_eusrstack+0x1fff90b4>
    1170:	8f49                	or	a4,a4,a0
    1172:	0ae7aa23          	sw	a4,180(a5)
F:\文档\串口助手\ProtoThread\ProtoThread-Templates-main\CH573_PT_Template\obj/../Drivers/StdPeriphDriver/CH57x_gpio.c:43
            R32_PA_PU     &= ~pin;
    1176:	0b07a703          	lw	a4,176(a5)
    117a:	fff54513          	not	a0,a0
    117e:	bf45                	j	112e <GPIOA_ModeCfg+0x2e>
F:\文档\串口助手\ProtoThread\ProtoThread-Templates-main\CH573_PT_Template\obj/../Drivers/StdPeriphDriver/CH57x_gpio.c:48
            R32_PA_PD_DRV &= ~pin;
    1180:	400017b7          	lui	a5,0x40001
    1184:	0b47a683          	lw	a3,180(a5) # 400010b4 <_eusrstack+0x1fff90b4>
    1188:	fff54713          	not	a4,a0
    118c:	8f75                	and	a4,a4,a3
F:\文档\串口助手\ProtoThread\ProtoThread-Templates-main\CH573_PT_Template\obj/../Drivers/StdPeriphDriver/CH57x_gpio.c:53
            R32_PA_PD_DRV |= pin;
    118e:	0ae7aa23          	sw	a4,180(a5)
F:\文档\串口助手\ProtoThread\ProtoThread-Templates-main\CH573_PT_Template\obj/../Drivers/StdPeriphDriver/CH57x_gpio.c:54
            R32_PA_DIR    |= pin;
    1192:	0a07a703          	lw	a4,160(a5)
    1196:	8d59                	or	a0,a0,a4
    1198:	b74d                	j	113a <GPIOA_ModeCfg+0x3a>
F:\文档\串口助手\ProtoThread\ProtoThread-Templates-main\CH573_PT_Template\obj/../Drivers/StdPeriphDriver/CH57x_gpio.c:53
            R32_PA_PD_DRV |= pin;
    119a:	400017b7          	lui	a5,0x40001
    119e:	0b47a703          	lw	a4,180(a5) # 400010b4 <_eusrstack+0x1fff90b4>
    11a2:	8f49                	or	a4,a4,a0
    11a4:	b7ed                	j	118e <GPIOA_ModeCfg+0x8e>

000011a6 <SPI0_MasterDefInit>:
SPI0_MasterDefInit():
F:\文档\串口助手\ProtoThread\ProtoThread-Templates-main\CH573_PT_Template\obj/../Drivers/StdPeriphDriver/CH57x_spi0.c:20
* Input          : None			   				
* Return         : None
*******************************************************************************/
void SPI0_MasterDefInit( void )
{
    R8_SPI0_CLOCK_DIV = 4;		// 主频时钟4分频
    11a6:	400047b7          	lui	a5,0x40004
    11aa:	4711                	li	a4,4
    11ac:	00e781a3          	sb	a4,3(a5) # 40004003 <_eusrstack+0x1fffc003>
F:\文档\串口助手\ProtoThread\ProtoThread-Templates-main\CH573_PT_Template\obj/../Drivers/StdPeriphDriver/CH57x_spi0.c:21
    R8_SPI0_CTRL_MOD = RB_SPI_ALL_CLEAR;
    11b0:	4709                	li	a4,2
    11b2:	00e78023          	sb	a4,0(a5)
F:\文档\串口助手\ProtoThread\ProtoThread-Templates-main\CH573_PT_Template\obj/../Drivers/StdPeriphDriver/CH57x_spi0.c:22
    R8_SPI0_CTRL_MOD = RB_SPI_MOSI_OE | RB_SPI_SCK_OE ;
    11b6:	06000713          	li	a4,96
    11ba:	00e78023          	sb	a4,0(a5)
F:\文档\串口助手\ProtoThread\ProtoThread-Templates-main\CH573_PT_Template\obj/../Drivers/StdPeriphDriver/CH57x_spi0.c:23
    R8_SPI0_CTRL_CFG |= RB_SPI_AUTO_IF;		   // 访问BUFFER/FIFO自动清除IF_BYTE_END标志
    11be:	0017c703          	lbu	a4,1(a5)
    11c2:	01076713          	ori	a4,a4,16
    11c6:	00e780a3          	sb	a4,1(a5)
F:\文档\串口助手\ProtoThread\ProtoThread-Templates-main\CH573_PT_Template\obj/../Drivers/StdPeriphDriver/CH57x_spi0.c:24
    R8_SPI0_CTRL_CFG &= ~RB_SPI_DMA_ENABLE;    // 不启动DMA方式 
    11ca:	0017c703          	lbu	a4,1(a5)
    11ce:	0fe77713          	andi	a4,a4,254
    11d2:	00e780a3          	sb	a4,1(a5)
F:\文档\串口助手\ProtoThread\ProtoThread-Templates-main\CH573_PT_Template\obj/../Drivers/StdPeriphDriver/CH57x_spi0.c:25
}
    11d6:	8082                	ret

000011d8 <SPI0_MasterSendByte>:
SPI0_MasterSendByte():
F:\文档\串口助手\ProtoThread\ProtoThread-Templates-main\CH573_PT_Template\obj/../Drivers/StdPeriphDriver/CH57x_spi0.c:82
* Input          : d: 发送字节
* Return         : None
*******************************************************************************/
void SPI0_MasterSendByte( UINT8 d )
{
    R8_SPI0_CTRL_MOD &= ~RB_SPI_FIFO_DIR;
    11d8:	400047b7          	lui	a5,0x40004
    11dc:	0007c703          	lbu	a4,0(a5) # 40004000 <_eusrstack+0x1fffc000>
    11e0:	0ef77713          	andi	a4,a4,239
    11e4:	00e78023          	sb	a4,0(a5)
F:\文档\串口助手\ProtoThread\ProtoThread-Templates-main\CH573_PT_Template\obj/../Drivers/StdPeriphDriver/CH57x_spi0.c:83
    R8_SPI0_BUFFER = d;
    11e8:	00a78223          	sb	a0,4(a5)
F:\文档\串口助手\ProtoThread\ProtoThread-Templates-main\CH573_PT_Template\obj/../Drivers/StdPeriphDriver/CH57x_spi0.c:84
    while( !(R8_SPI0_INT_FLAG & RB_SPI_FREE) );	
    11ec:	40004737          	lui	a4,0x40004
F:\文档\串口助手\ProtoThread\ProtoThread-Templates-main\CH573_PT_Template\obj/../Drivers/StdPeriphDriver/CH57x_spi0.c:84 (discriminator 1)
    11f0:	00674783          	lbu	a5,6(a4) # 40004006 <_eusrstack+0x1fffc006>
    11f4:	0407f793          	andi	a5,a5,64
    11f8:	dfe5                	beqz	a5,11f0 <SPI0_MasterSendByte+0x18>
F:\文档\串口助手\ProtoThread\ProtoThread-Templates-main\CH573_PT_Template\obj/../Drivers/StdPeriphDriver/CH57x_spi0.c:85
}
    11fa:	8082                	ret

000011fc <SPI0_MasterTrans>:
SPI0_MasterTrans():
F:\文档\串口助手\ProtoThread\ProtoThread-Templates-main\CH573_PT_Template\obj/../Drivers/StdPeriphDriver/CH57x_spi0.c:114
void SPI0_MasterTrans( UINT8 *pbuf, UINT16 len )
{
    UINT16 sendlen;

    sendlen = len;
    R8_SPI0_CTRL_MOD &= ~RB_SPI_FIFO_DIR;                     // 设置数据方向为输出 
    11fc:	400047b7          	lui	a5,0x40004
    1200:	0007c703          	lbu	a4,0(a5) # 40004000 <_eusrstack+0x1fffc000>
F:\文档\串口助手\ProtoThread\ProtoThread-Templates-main\CH573_PT_Template\obj/../Drivers/StdPeriphDriver/CH57x_spi0.c:119
    R16_SPI0_TOTAL_CNT = sendlen;                             // 设置要发送的数据长度	
    R8_SPI0_INT_FLAG = RB_SPI_IF_CNT_END;
    while( sendlen )
    {                                         
        if( R8_SPI0_FIFO_COUNT < SPI_FIFO_SIZE )
    1204:	400046b7          	lui	a3,0x40004
F:\文档\串口助手\ProtoThread\ProtoThread-Templates-main\CH573_PT_Template\obj/../Drivers/StdPeriphDriver/CH57x_spi0.c:114
    R8_SPI0_CTRL_MOD &= ~RB_SPI_FIFO_DIR;                     // 设置数据方向为输出 
    1208:	0ef77713          	andi	a4,a4,239
    120c:	00e78023          	sb	a4,0(a5)
F:\文档\串口助手\ProtoThread\ProtoThread-Templates-main\CH573_PT_Template\obj/../Drivers/StdPeriphDriver/CH57x_spi0.c:115
    R16_SPI0_TOTAL_CNT = sendlen;                             // 设置要发送的数据长度	
    1210:	00b79623          	sh	a1,12(a5)
F:\文档\串口助手\ProtoThread\ProtoThread-Templates-main\CH573_PT_Template\obj/../Drivers/StdPeriphDriver/CH57x_spi0.c:116
    R8_SPI0_INT_FLAG = RB_SPI_IF_CNT_END;
    1214:	4705                	li	a4,1
    1216:	00e78323          	sb	a4,6(a5)
F:\文档\串口助手\ProtoThread\ProtoThread-Templates-main\CH573_PT_Template\obj/../Drivers/StdPeriphDriver/CH57x_spi0.c:119
        if( R8_SPI0_FIFO_COUNT < SPI_FIFO_SIZE )
    121a:	471d                	li	a4,7
F:\文档\串口助手\ProtoThread\ProtoThread-Templates-main\CH573_PT_Template\obj/../Drivers/StdPeriphDriver/CH57x_spi0.c:117
    while( sendlen )
    121c:	e989                	bnez	a1,122e <SPI0_MasterTrans+0x32>
F:\文档\串口助手\ProtoThread\ProtoThread-Templates-main\CH573_PT_Template\obj/../Drivers/StdPeriphDriver/CH57x_spi0.c:126
            R8_SPI0_FIFO = *pbuf;
            pbuf++;
            sendlen--;
        }
    }
    while( R8_SPI0_FIFO_COUNT != 0 );                         // 等待FIFO中的数据全部发送完成 
    121e:	40004737          	lui	a4,0x40004
F:\文档\串口助手\ProtoThread\ProtoThread-Templates-main\CH573_PT_Template\obj/../Drivers/StdPeriphDriver/CH57x_spi0.c:126 (discriminator 1)
    1222:	00774783          	lbu	a5,7(a4) # 40004007 <_eusrstack+0x1fffc007>
    1226:	0ff7f793          	andi	a5,a5,255
    122a:	ffe5                	bnez	a5,1222 <SPI0_MasterTrans+0x26>
F:\文档\串口助手\ProtoThread\ProtoThread-Templates-main\CH573_PT_Template\obj/../Drivers/StdPeriphDriver/CH57x_spi0.c:127
}
    122c:	8082                	ret
F:\文档\串口助手\ProtoThread\ProtoThread-Templates-main\CH573_PT_Template\obj/../Drivers/StdPeriphDriver/CH57x_spi0.c:119
        if( R8_SPI0_FIFO_COUNT < SPI_FIFO_SIZE )
    122e:	0077c603          	lbu	a2,7(a5)
    1232:	fec765e3          	bltu	a4,a2,121c <SPI0_MasterTrans+0x20>
F:\文档\串口助手\ProtoThread\ProtoThread-Templates-main\CH573_PT_Template\obj/../Drivers/StdPeriphDriver/CH57x_spi0.c:121
            R8_SPI0_FIFO = *pbuf;
    1236:	00054603          	lbu	a2,0(a0)
F:\文档\串口助手\ProtoThread\ProtoThread-Templates-main\CH573_PT_Template\obj/../Drivers/StdPeriphDriver/CH57x_spi0.c:123
            sendlen--;
    123a:	15fd                	addi	a1,a1,-1
    123c:	05c2                	slli	a1,a1,0x10
F:\文档\串口助手\ProtoThread\ProtoThread-Templates-main\CH573_PT_Template\obj/../Drivers/StdPeriphDriver/CH57x_spi0.c:121
            R8_SPI0_FIFO = *pbuf;
    123e:	00c68823          	sb	a2,16(a3) # 40004010 <_eusrstack+0x1fffc010>
F:\文档\串口助手\ProtoThread\ProtoThread-Templates-main\CH573_PT_Template\obj/../Drivers/StdPeriphDriver/CH57x_spi0.c:122
            pbuf++;
    1242:	0505                	addi	a0,a0,1
F:\文档\串口助手\ProtoThread\ProtoThread-Templates-main\CH573_PT_Template\obj/../Drivers/StdPeriphDriver/CH57x_spi0.c:123
            sendlen--;
    1244:	81c1                	srli	a1,a1,0x10
    1246:	bfd9                	j	121c <SPI0_MasterTrans+0x20>

00001248 <GetSysClock>:
GetSysClock():
F:\文档\串口助手\ProtoThread\ProtoThread-Templates-main\CH573_PT_Template\obj/../Drivers/StdPeriphDriver/CH57x_sys.c:74
  rev = R16_CLK_SYS_CFG & 0xff;
    1248:	400017b7          	lui	a5,0x40001
    124c:	0087d503          	lhu	a0,8(a5) # 40001008 <_eusrstack+0x1fff9008>
    1250:	0542                	slli	a0,a0,0x10
    1252:	8141                	srli	a0,a0,0x10
F:\文档\串口助手\ProtoThread\ProtoThread-Templates-main\CH573_PT_Template\obj/../Drivers/StdPeriphDriver/CH57x_sys.c:75
  if( (rev & 0x40) == (0<<6) ){       // 32M进行分频
    1254:	04057793          	andi	a5,a0,64
    1258:	eb91                	bnez	a5,126c <GetSysClock+0x24>
F:\文档\串口助手\ProtoThread\ProtoThread-Templates-main\CH573_PT_Template\obj/../Drivers/StdPeriphDriver/CH57x_sys.c:76
      return (32000000/(rev&0x1f));
    125a:	01f57793          	andi	a5,a0,31
    125e:	01e85537          	lui	a0,0x1e85
F:\文档\串口助手\ProtoThread\ProtoThread-Templates-main\CH573_PT_Template\obj/../Drivers/StdPeriphDriver/CH57x_sys.c:79
      return (480000000/(rev&0x1f));
    1262:	80050513          	addi	a0,a0,-2048 # 1e84800 <_data_lma+0x1e81eb8>
    1266:	02f54533          	div	a0,a0,a5
    126a:	8082                	ret
F:\文档\串口助手\ProtoThread\ProtoThread-Templates-main\CH573_PT_Template\obj/../Drivers/StdPeriphDriver/CH57x_sys.c:78
  else if( (rev & RB_CLK_SYS_MOD) == (1<<6) ){    // PLL进行分频
    126c:	0c057793          	andi	a5,a0,192
    1270:	04000713          	li	a4,64
    1274:	00e79763          	bne	a5,a4,1282 <GetSysClock+0x3a>
F:\文档\串口助手\ProtoThread\ProtoThread-Templates-main\CH573_PT_Template\obj/../Drivers/StdPeriphDriver/CH57x_sys.c:79
      return (480000000/(rev&0x1f));
    1278:	01f57793          	andi	a5,a0,31
    127c:	1c9c4537          	lui	a0,0x1c9c4
    1280:	b7cd                	j	1262 <GetSysClock+0x1a>
F:\文档\串口助手\ProtoThread\ProtoThread-Templates-main\CH573_PT_Template\obj/../Drivers/StdPeriphDriver/CH57x_sys.c:82
    return (32000);
    1282:	6521                	lui	a0,0x8
    1284:	d0050513          	addi	a0,a0,-768 # 7d00 <_data_lma+0x53b8>
F:\文档\串口助手\ProtoThread\ProtoThread-Templates-main\CH573_PT_Template\obj/../Drivers/StdPeriphDriver/CH57x_sys.c:84
}
    1288:	8082                	ret

0000128a <_write>:
_write():
F:\文档\串口助手\ProtoThread\ProtoThread-Templates-main\CH573_PT_Template\obj/../Drivers/StdPeriphDriver/CH57x_sys.c:279

#ifdef DEBUG
int _write(int fd, char *buf, int size)
{
	int i;
	for(i=0; i<size; i++)
    128a:	4781                	li	a5,0
F:\文档\串口助手\ProtoThread\ProtoThread-Templates-main\CH573_PT_Template\obj/../Drivers/StdPeriphDriver/CH57x_sys.c:285
	{
#if  DEBUG == Debug_UART0
		while( R8_UART0_TFC == UART_FIFO_SIZE );                        /* 等待数据发送 */
		R8_UART0_THR = *buf++;                                               /* 发送数据 */
#elif DEBUG == Debug_UART1       
		while( R8_UART1_TFC == UART_FIFO_SIZE );                        /* 等待数据发送 */
    128c:	40003737          	lui	a4,0x40003
    1290:	46a1                	li	a3,8
F:\文档\串口助手\ProtoThread\ProtoThread-Templates-main\CH573_PT_Template\obj/../Drivers/StdPeriphDriver/CH57x_sys.c:279 (discriminator 1)
	for(i=0; i<size; i++)
    1292:	00c7c463          	blt	a5,a2,129a <_write+0x10>
F:\文档\串口助手\ProtoThread\ProtoThread-Templates-main\CH573_PT_Template\obj/../Drivers/StdPeriphDriver/CH57x_sys.c:296
		while( R8_UART3_TFC == UART_FIFO_SIZE );                        /* 等待数据发送 */
		R8_UART3_THR = *buf++;                                               /* 发送数据 */
#endif
	}
	return size;
}
    1296:	8532                	mv	a0,a2
    1298:	8082                	ret
F:\文档\串口助手\ProtoThread\ProtoThread-Templates-main\CH573_PT_Template\obj/../Drivers/StdPeriphDriver/CH57x_sys.c:285 (discriminator 1)
		while( R8_UART1_TFC == UART_FIFO_SIZE );                        /* 等待数据发送 */
    129a:	40b74503          	lbu	a0,1035(a4) # 4000340b <_eusrstack+0x1fffb40b>
    129e:	fea68ee3          	beq	a3,a0,129a <_write+0x10>
F:\文档\串口助手\ProtoThread\ProtoThread-Templates-main\CH573_PT_Template\obj/../Drivers/StdPeriphDriver/CH57x_sys.c:286 (discriminator 2)
		R8_UART1_THR = *buf++;                                               /* 发送数据 */
    12a2:	00f58533          	add	a0,a1,a5
    12a6:	00054503          	lbu	a0,0(a0)
F:\文档\串口助手\ProtoThread\ProtoThread-Templates-main\CH573_PT_Template\obj/../Drivers/StdPeriphDriver/CH57x_sys.c:279 (discriminator 2)
	for(i=0; i<size; i++)
    12aa:	0785                	addi	a5,a5,1
F:\文档\串口助手\ProtoThread\ProtoThread-Templates-main\CH573_PT_Template\obj/../Drivers/StdPeriphDriver/CH57x_sys.c:286 (discriminator 2)
		R8_UART1_THR = *buf++;                                               /* 发送数据 */
    12ac:	40a70423          	sb	a0,1032(a4)
    12b0:	b7cd                	j	1292 <_write+0x8>

000012b2 <UART1_BaudRateCfg>:
UART1_BaudRateCfg():
F:\文档\串口助手\ProtoThread\ProtoThread-Templates-main\CH573_PT_Template\obj/../Drivers/StdPeriphDriver/CH57x_uart1.c:33
* Description    : 串口波特率配置
* Input          : 
* Return         : 
*******************************************************************************/
void UART1_BaudRateCfg( UINT32 baudrate )
{
    12b2:	1141                	addi	sp,sp,-16
    12b4:	c422                	sw	s0,8(sp)
    12b6:	c606                	sw	ra,12(sp)
    12b8:	842a                	mv	s0,a0
F:\文档\串口助手\ProtoThread\ProtoThread-Templates-main\CH573_PT_Template\obj/../Drivers/StdPeriphDriver/CH57x_uart1.c:36
    UINT32	x;

   x = 10 * GetSysClock() / 8 / baudrate;
    12ba:	3779                	jal	1248 <GetSysClock>
    12bc:	4729                	li	a4,10
    12be:	02e507b3          	mul	a5,a0,a4
F:\文档\串口助手\ProtoThread\ProtoThread-Templates-main\CH573_PT_Template\obj/../Drivers/StdPeriphDriver/CH57x_uart1.c:39
    x = ( x + 5 ) / 10;
    R16_UART1_DL = (UINT16)x;
}
    12c2:	40b2                	lw	ra,12(sp)
F:\文档\串口助手\ProtoThread\ProtoThread-Templates-main\CH573_PT_Template\obj/../Drivers/StdPeriphDriver/CH57x_uart1.c:36
   x = 10 * GetSysClock() / 8 / baudrate;
    12c4:	838d                	srli	a5,a5,0x3
    12c6:	0287d7b3          	divu	a5,a5,s0
F:\文档\串口助手\ProtoThread\ProtoThread-Templates-main\CH573_PT_Template\obj/../Drivers/StdPeriphDriver/CH57x_uart1.c:39
}
    12ca:	4422                	lw	s0,8(sp)
F:\文档\串口助手\ProtoThread\ProtoThread-Templates-main\CH573_PT_Template\obj/../Drivers/StdPeriphDriver/CH57x_uart1.c:37
    x = ( x + 5 ) / 10;
    12cc:	0795                	addi	a5,a5,5
    12ce:	02e7d7b3          	divu	a5,a5,a4
F:\文档\串口助手\ProtoThread\ProtoThread-Templates-main\CH573_PT_Template\obj/../Drivers/StdPeriphDriver/CH57x_uart1.c:38
    R16_UART1_DL = (UINT16)x;
    12d2:	40003737          	lui	a4,0x40003
    12d6:	07c2                	slli	a5,a5,0x10
    12d8:	83c1                	srli	a5,a5,0x10
    12da:	40f71623          	sh	a5,1036(a4) # 4000340c <_eusrstack+0x1fffb40c>
F:\文档\串口助手\ProtoThread\ProtoThread-Templates-main\CH573_PT_Template\obj/../Drivers/StdPeriphDriver/CH57x_uart1.c:39
}
    12de:	0141                	addi	sp,sp,16
    12e0:	8082                	ret

000012e2 <UART1_DefInit>:
UART1_DefInit():
F:\文档\串口助手\ProtoThread\ProtoThread-Templates-main\CH573_PT_Template\obj/../Drivers/StdPeriphDriver/CH57x_uart1.c:19
    UART1_BaudRateCfg( 115200 );
    12e2:	6571                	lui	a0,0x1c
F:\文档\串口助手\ProtoThread\ProtoThread-Templates-main\CH573_PT_Template\obj/../Drivers/StdPeriphDriver/CH57x_uart1.c:18
{	
    12e4:	1141                	addi	sp,sp,-16
F:\文档\串口助手\ProtoThread\ProtoThread-Templates-main\CH573_PT_Template\obj/../Drivers/StdPeriphDriver/CH57x_uart1.c:19
    UART1_BaudRateCfg( 115200 );
    12e6:	20050513          	addi	a0,a0,512 # 1c200 <_data_lma+0x198b8>
F:\文档\串口助手\ProtoThread\ProtoThread-Templates-main\CH573_PT_Template\obj/../Drivers/StdPeriphDriver/CH57x_uart1.c:18
{	
    12ea:	c606                	sw	ra,12(sp)
F:\文档\串口助手\ProtoThread\ProtoThread-Templates-main\CH573_PT_Template\obj/../Drivers/StdPeriphDriver/CH57x_uart1.c:19
    UART1_BaudRateCfg( 115200 );
    12ec:	37d9                	jal	12b2 <UART1_BaudRateCfg>
F:\文档\串口助手\ProtoThread\ProtoThread-Templates-main\CH573_PT_Template\obj/../Drivers/StdPeriphDriver/CH57x_uart1.c:20
    R8_UART1_FCR = (2<<6) | RB_FCR_TX_FIFO_CLR | RB_FCR_RX_FIFO_CLR | RB_FCR_FIFO_EN;		// FIFO打开，触发点4字节
    12ee:	400037b7          	lui	a5,0x40003
    12f2:	f8700713          	li	a4,-121
    12f6:	40e78123          	sb	a4,1026(a5) # 40003402 <_eusrstack+0x1fffb402>
F:\文档\串口助手\ProtoThread\ProtoThread-Templates-main\CH573_PT_Template\obj/../Drivers/StdPeriphDriver/CH57x_uart1.c:21
    R8_UART1_LCR = RB_LCR_WORD_SZ;	
    12fa:	470d                	li	a4,3
    12fc:	40e781a3          	sb	a4,1027(a5)
F:\文档\串口助手\ProtoThread\ProtoThread-Templates-main\CH573_PT_Template\obj/../Drivers/StdPeriphDriver/CH57x_uart1.c:22
    R8_UART1_IER = RB_IER_TXD_EN;
    1300:	04000713          	li	a4,64
    1304:	40e780a3          	sb	a4,1025(a5)
F:\文档\串口助手\ProtoThread\ProtoThread-Templates-main\CH573_PT_Template\obj/../Drivers/StdPeriphDriver/CH57x_uart1.c:23
    R8_UART1_DIV = 1;	
    1308:	4705                	li	a4,1
    130a:	40e78723          	sb	a4,1038(a5)
F:\文档\串口助手\ProtoThread\ProtoThread-Templates-main\CH573_PT_Template\obj/../Drivers/StdPeriphDriver/CH57x_uart1.c:24
}
    130e:	40b2                	lw	ra,12(sp)
    1310:	0141                	addi	sp,sp,16
    1312:	8082                	ret

00001314 <memcpy>:
memcpy():
    1314:	00a5c7b3          	xor	a5,a1,a0
    1318:	8b8d                	andi	a5,a5,3
    131a:	00c50733          	add	a4,a0,a2
    131e:	e781                	bnez	a5,1326 <memcpy+0x12>
    1320:	478d                	li	a5,3
    1322:	00c7ee63          	bltu	a5,a2,133e <memcpy+0x2a>
    1326:	87aa                	mv	a5,a0
    1328:	0ae57063          	bgeu	a0,a4,13c8 <memcpy+0xb4>
    132c:	0005c683          	lbu	a3,0(a1)
    1330:	0785                	addi	a5,a5,1
    1332:	0585                	addi	a1,a1,1
    1334:	fed78fa3          	sb	a3,-1(a5)
    1338:	fee7eae3          	bltu	a5,a4,132c <memcpy+0x18>
    133c:	8082                	ret
    133e:	00357693          	andi	a3,a0,3
    1342:	87aa                	mv	a5,a0
    1344:	ca91                	beqz	a3,1358 <memcpy+0x44>
    1346:	0005c683          	lbu	a3,0(a1)
    134a:	0785                	addi	a5,a5,1
    134c:	0585                	addi	a1,a1,1
    134e:	fed78fa3          	sb	a3,-1(a5)
    1352:	0037f693          	andi	a3,a5,3
    1356:	b7fd                	j	1344 <memcpy+0x30>
    1358:	ffc77693          	andi	a3,a4,-4
    135c:	fe068613          	addi	a2,a3,-32
    1360:	06c7f063          	bgeu	a5,a2,13c0 <memcpy+0xac>
    1364:	0005a383          	lw	t2,0(a1)
    1368:	0045a283          	lw	t0,4(a1)
    136c:	0085af83          	lw	t6,8(a1)
    1370:	00c5af03          	lw	t5,12(a1)
    1374:	0105ae83          	lw	t4,16(a1)
    1378:	0145ae03          	lw	t3,20(a1)
    137c:	0185a303          	lw	t1,24(a1)
    1380:	01c5a883          	lw	a7,28(a1)
    1384:	02458593          	addi	a1,a1,36
    1388:	0077a023          	sw	t2,0(a5)
    138c:	ffc5a803          	lw	a6,-4(a1)
    1390:	0057a223          	sw	t0,4(a5)
    1394:	01f7a423          	sw	t6,8(a5)
    1398:	01e7a623          	sw	t5,12(a5)
    139c:	01d7a823          	sw	t4,16(a5)
    13a0:	01c7aa23          	sw	t3,20(a5)
    13a4:	0067ac23          	sw	t1,24(a5)
    13a8:	0117ae23          	sw	a7,28(a5)
    13ac:	02478793          	addi	a5,a5,36
    13b0:	ff07ae23          	sw	a6,-4(a5)
    13b4:	b775                	j	1360 <memcpy+0x4c>
    13b6:	4190                	lw	a2,0(a1)
    13b8:	0791                	addi	a5,a5,4
    13ba:	0591                	addi	a1,a1,4
    13bc:	fec7ae23          	sw	a2,-4(a5)
    13c0:	fed7ebe3          	bltu	a5,a3,13b6 <memcpy+0xa2>
    13c4:	f6e7e4e3          	bltu	a5,a4,132c <memcpy+0x18>
    13c8:	8082                	ret

000013ca <iprintf>:
printf():
    13ca:	7139                	addi	sp,sp,-64
    13cc:	da3e                	sw	a5,52(sp)
    13ce:	d22e                	sw	a1,36(sp)
    13d0:	d432                	sw	a2,40(sp)
    13d2:	d636                	sw	a3,44(sp)
    13d4:	d83a                	sw	a4,48(sp)
    13d6:	dc42                	sw	a6,56(sp)
    13d8:	de46                	sw	a7,60(sp)
    13da:	20003797          	auipc	a5,0x20003
    13de:	d0e78793          	addi	a5,a5,-754 # 200040e8 <_impure_ptr>
    13e2:	cc22                	sw	s0,24(sp)
    13e4:	4380                	lw	s0,0(a5)
    13e6:	ca26                	sw	s1,20(sp)
    13e8:	ce06                	sw	ra,28(sp)
    13ea:	84aa                	mv	s1,a0
    13ec:	c409                	beqz	s0,13f6 <iprintf+0x2c>
    13ee:	4c1c                	lw	a5,24(s0)
    13f0:	e399                	bnez	a5,13f6 <iprintf+0x2c>
    13f2:	8522                	mv	a0,s0
    13f4:	2ba9                	jal	194e <__sinit>
    13f6:	440c                	lw	a1,8(s0)
    13f8:	1054                	addi	a3,sp,36
    13fa:	8626                	mv	a2,s1
    13fc:	8522                	mv	a0,s0
    13fe:	c636                	sw	a3,12(sp)
    1400:	1a9000ef          	jal	ra,1da8 <_vfiprintf_r>
    1404:	40f2                	lw	ra,28(sp)
    1406:	4462                	lw	s0,24(sp)
    1408:	44d2                	lw	s1,20(sp)
    140a:	6121                	addi	sp,sp,64
    140c:	8082                	ret

0000140e <putchar>:
putchar():
    140e:	1101                	addi	sp,sp,-32
    1410:	20003797          	auipc	a5,0x20003
    1414:	cd878793          	addi	a5,a5,-808 # 200040e8 <_impure_ptr>
    1418:	cc22                	sw	s0,24(sp)
    141a:	4380                	lw	s0,0(a5)
    141c:	ce06                	sw	ra,28(sp)
    141e:	85aa                	mv	a1,a0
    1420:	c419                	beqz	s0,142e <putchar+0x20>
    1422:	4c1c                	lw	a5,24(s0)
    1424:	e789                	bnez	a5,142e <putchar+0x20>
    1426:	c62a                	sw	a0,12(sp)
    1428:	8522                	mv	a0,s0
    142a:	2315                	jal	194e <__sinit>
    142c:	45b2                	lw	a1,12(sp)
    142e:	4410                	lw	a2,8(s0)
    1430:	8522                	mv	a0,s0
    1432:	4462                	lw	s0,24(sp)
    1434:	40f2                	lw	ra,28(sp)
    1436:	6105                	addi	sp,sp,32
    1438:	7bf0006f          	j	23f6 <_putc_r>

0000143c <_puts_r>:
_puts_r():
    143c:	1101                	addi	sp,sp,-32
    143e:	ca26                	sw	s1,20(sp)
    1440:	c84a                	sw	s2,16(sp)
    1442:	ce06                	sw	ra,28(sp)
    1444:	cc22                	sw	s0,24(sp)
    1446:	c64e                	sw	s3,12(sp)
    1448:	c452                	sw	s4,8(sp)
    144a:	84aa                	mv	s1,a0
    144c:	892e                	mv	s2,a1
    144e:	c501                	beqz	a0,1456 <_puts_r+0x1a>
    1450:	4d1c                	lw	a5,24(a0)
    1452:	e391                	bnez	a5,1456 <_puts_r+0x1a>
    1454:	29ed                	jal	194e <__sinit>
    1456:	4c9c                	lw	a5,24(s1)
    1458:	4480                	lw	s0,8(s1)
    145a:	e399                	bnez	a5,1460 <_puts_r+0x24>
    145c:	8526                	mv	a0,s1
    145e:	29c5                	jal	194e <__sinit>
    1460:	00001797          	auipc	a5,0x1
    1464:	46878793          	addi	a5,a5,1128 # 28c8 <__sf_fake_stdin>
    1468:	02f41c63          	bne	s0,a5,14a0 <_puts_r+0x64>
    146c:	40c0                	lw	s0,4(s1)
    146e:	00c45783          	lhu	a5,12(s0)
    1472:	8ba1                	andi	a5,a5,8
    1474:	c7b1                	beqz	a5,14c0 <_puts_r+0x84>
    1476:	481c                	lw	a5,16(s0)
    1478:	c7a1                	beqz	a5,14c0 <_puts_r+0x84>
    147a:	59fd                	li	s3,-1
    147c:	4a29                	li	s4,10
    147e:	441c                	lw	a5,8(s0)
    1480:	00094583          	lbu	a1,0(s2)
    1484:	17fd                	addi	a5,a5,-1
    1486:	e9b1                	bnez	a1,14da <_puts_r+0x9e>
    1488:	c41c                	sw	a5,8(s0)
    148a:	0607de63          	bgez	a5,1506 <_puts_r+0xca>
    148e:	8622                	mv	a2,s0
    1490:	45a9                	li	a1,10
    1492:	8526                	mv	a0,s1
    1494:	2841                	jal	1524 <__swbuf_r>
    1496:	57fd                	li	a5,-1
    1498:	02f50863          	beq	a0,a5,14c8 <_puts_r+0x8c>
    149c:	4529                	li	a0,10
    149e:	a035                	j	14ca <_puts_r+0x8e>
    14a0:	00001797          	auipc	a5,0x1
    14a4:	44878793          	addi	a5,a5,1096 # 28e8 <__sf_fake_stdout>
    14a8:	00f41463          	bne	s0,a5,14b0 <_puts_r+0x74>
    14ac:	4480                	lw	s0,8(s1)
    14ae:	b7c1                	j	146e <_puts_r+0x32>
    14b0:	00001797          	auipc	a5,0x1
    14b4:	3f878793          	addi	a5,a5,1016 # 28a8 <__sf_fake_stderr>
    14b8:	faf41be3          	bne	s0,a5,146e <_puts_r+0x32>
    14bc:	44c0                	lw	s0,12(s1)
    14be:	bf45                	j	146e <_puts_r+0x32>
    14c0:	85a2                	mv	a1,s0
    14c2:	8526                	mv	a0,s1
    14c4:	2205                	jal	15e4 <__swsetup_r>
    14c6:	d955                	beqz	a0,147a <_puts_r+0x3e>
    14c8:	557d                	li	a0,-1
    14ca:	40f2                	lw	ra,28(sp)
    14cc:	4462                	lw	s0,24(sp)
    14ce:	44d2                	lw	s1,20(sp)
    14d0:	4942                	lw	s2,16(sp)
    14d2:	49b2                	lw	s3,12(sp)
    14d4:	4a22                	lw	s4,8(sp)
    14d6:	6105                	addi	sp,sp,32
    14d8:	8082                	ret
    14da:	c41c                	sw	a5,8(s0)
    14dc:	0905                	addi	s2,s2,1
    14de:	0007d763          	bgez	a5,14ec <_puts_r+0xb0>
    14e2:	4c18                	lw	a4,24(s0)
    14e4:	00e7cb63          	blt	a5,a4,14fa <_puts_r+0xbe>
    14e8:	01458963          	beq	a1,s4,14fa <_puts_r+0xbe>
    14ec:	401c                	lw	a5,0(s0)
    14ee:	00178713          	addi	a4,a5,1
    14f2:	c018                	sw	a4,0(s0)
    14f4:	00b78023          	sb	a1,0(a5)
    14f8:	b759                	j	147e <_puts_r+0x42>
    14fa:	8622                	mv	a2,s0
    14fc:	8526                	mv	a0,s1
    14fe:	201d                	jal	1524 <__swbuf_r>
    1500:	f7351fe3          	bne	a0,s3,147e <_puts_r+0x42>
    1504:	b7d1                	j	14c8 <_puts_r+0x8c>
    1506:	401c                	lw	a5,0(s0)
    1508:	00178713          	addi	a4,a5,1
    150c:	c018                	sw	a4,0(s0)
    150e:	4729                	li	a4,10
    1510:	00e78023          	sb	a4,0(a5)
    1514:	b761                	j	149c <_puts_r+0x60>

00001516 <puts>:
puts():
    1516:	20003797          	auipc	a5,0x20003
    151a:	bd278793          	addi	a5,a5,-1070 # 200040e8 <_impure_ptr>
    151e:	85aa                	mv	a1,a0
    1520:	4388                	lw	a0,0(a5)
    1522:	bf29                	j	143c <_puts_r>

00001524 <__swbuf_r>:
__swbuf_r():
    1524:	1101                	addi	sp,sp,-32
    1526:	cc22                	sw	s0,24(sp)
    1528:	ca26                	sw	s1,20(sp)
    152a:	c84a                	sw	s2,16(sp)
    152c:	ce06                	sw	ra,28(sp)
    152e:	c64e                	sw	s3,12(sp)
    1530:	84aa                	mv	s1,a0
    1532:	892e                	mv	s2,a1
    1534:	8432                	mv	s0,a2
    1536:	c501                	beqz	a0,153e <__swbuf_r+0x1a>
    1538:	4d1c                	lw	a5,24(a0)
    153a:	e391                	bnez	a5,153e <__swbuf_r+0x1a>
    153c:	2909                	jal	194e <__sinit>
    153e:	00001797          	auipc	a5,0x1
    1542:	38a78793          	addi	a5,a5,906 # 28c8 <__sf_fake_stdin>
    1546:	06f41963          	bne	s0,a5,15b8 <__swbuf_r+0x94>
    154a:	40c0                	lw	s0,4(s1)
    154c:	4c1c                	lw	a5,24(s0)
    154e:	c41c                	sw	a5,8(s0)
    1550:	00c45783          	lhu	a5,12(s0)
    1554:	8ba1                	andi	a5,a5,8
    1556:	c3c9                	beqz	a5,15d8 <__swbuf_r+0xb4>
    1558:	481c                	lw	a5,16(s0)
    155a:	cfbd                	beqz	a5,15d8 <__swbuf_r+0xb4>
    155c:	481c                	lw	a5,16(s0)
    155e:	4008                	lw	a0,0(s0)
    1560:	0ff97993          	andi	s3,s2,255
    1564:	0ff97913          	andi	s2,s2,255
    1568:	8d1d                	sub	a0,a0,a5
    156a:	485c                	lw	a5,20(s0)
    156c:	00f54663          	blt	a0,a5,1578 <__swbuf_r+0x54>
    1570:	85a2                	mv	a1,s0
    1572:	8526                	mv	a0,s1
    1574:	2c75                	jal	1830 <_fflush_r>
    1576:	e52d                	bnez	a0,15e0 <__swbuf_r+0xbc>
    1578:	441c                	lw	a5,8(s0)
    157a:	0505                	addi	a0,a0,1
    157c:	17fd                	addi	a5,a5,-1
    157e:	c41c                	sw	a5,8(s0)
    1580:	401c                	lw	a5,0(s0)
    1582:	00178713          	addi	a4,a5,1
    1586:	c018                	sw	a4,0(s0)
    1588:	01378023          	sb	s3,0(a5)
    158c:	485c                	lw	a5,20(s0)
    158e:	00a78963          	beq	a5,a0,15a0 <__swbuf_r+0x7c>
    1592:	00c45783          	lhu	a5,12(s0)
    1596:	8b85                	andi	a5,a5,1
    1598:	cb81                	beqz	a5,15a8 <__swbuf_r+0x84>
    159a:	47a9                	li	a5,10
    159c:	00f91663          	bne	s2,a5,15a8 <__swbuf_r+0x84>
    15a0:	85a2                	mv	a1,s0
    15a2:	8526                	mv	a0,s1
    15a4:	2471                	jal	1830 <_fflush_r>
    15a6:	ed0d                	bnez	a0,15e0 <__swbuf_r+0xbc>
    15a8:	40f2                	lw	ra,28(sp)
    15aa:	4462                	lw	s0,24(sp)
    15ac:	854a                	mv	a0,s2
    15ae:	44d2                	lw	s1,20(sp)
    15b0:	4942                	lw	s2,16(sp)
    15b2:	49b2                	lw	s3,12(sp)
    15b4:	6105                	addi	sp,sp,32
    15b6:	8082                	ret
    15b8:	00001797          	auipc	a5,0x1
    15bc:	33078793          	addi	a5,a5,816 # 28e8 <__sf_fake_stdout>
    15c0:	00f41463          	bne	s0,a5,15c8 <__swbuf_r+0xa4>
    15c4:	4480                	lw	s0,8(s1)
    15c6:	b759                	j	154c <__swbuf_r+0x28>
    15c8:	00001797          	auipc	a5,0x1
    15cc:	2e078793          	addi	a5,a5,736 # 28a8 <__sf_fake_stderr>
    15d0:	f6f41ee3          	bne	s0,a5,154c <__swbuf_r+0x28>
    15d4:	44c0                	lw	s0,12(s1)
    15d6:	bf9d                	j	154c <__swbuf_r+0x28>
    15d8:	85a2                	mv	a1,s0
    15da:	8526                	mv	a0,s1
    15dc:	2021                	jal	15e4 <__swsetup_r>
    15de:	dd3d                	beqz	a0,155c <__swbuf_r+0x38>
    15e0:	597d                	li	s2,-1
    15e2:	b7d9                	j	15a8 <__swbuf_r+0x84>

000015e4 <__swsetup_r>:
__swsetup_r():
    15e4:	1141                	addi	sp,sp,-16
    15e6:	20003797          	auipc	a5,0x20003
    15ea:	b0278793          	addi	a5,a5,-1278 # 200040e8 <_impure_ptr>
    15ee:	c226                	sw	s1,4(sp)
    15f0:	4384                	lw	s1,0(a5)
    15f2:	c422                	sw	s0,8(sp)
    15f4:	c04a                	sw	s2,0(sp)
    15f6:	c606                	sw	ra,12(sp)
    15f8:	892a                	mv	s2,a0
    15fa:	842e                	mv	s0,a1
    15fc:	c489                	beqz	s1,1606 <__swsetup_r+0x22>
    15fe:	4c9c                	lw	a5,24(s1)
    1600:	e399                	bnez	a5,1606 <__swsetup_r+0x22>
    1602:	8526                	mv	a0,s1
    1604:	26a9                	jal	194e <__sinit>
    1606:	00001797          	auipc	a5,0x1
    160a:	2c278793          	addi	a5,a5,706 # 28c8 <__sf_fake_stdin>
    160e:	02f41c63          	bne	s0,a5,1646 <__swsetup_r+0x62>
    1612:	40c0                	lw	s0,4(s1)
    1614:	00c41703          	lh	a4,12(s0)
    1618:	01071793          	slli	a5,a4,0x10
    161c:	83c1                	srli	a5,a5,0x10
    161e:	0087f693          	andi	a3,a5,8
    1622:	eeb5                	bnez	a3,169e <__swsetup_r+0xba>
    1624:	0107f693          	andi	a3,a5,16
    1628:	ee9d                	bnez	a3,1666 <__swsetup_r+0x82>
    162a:	47a5                	li	a5,9
    162c:	00f92023          	sw	a5,0(s2)
    1630:	04076713          	ori	a4,a4,64
    1634:	00e41623          	sh	a4,12(s0)
    1638:	557d                	li	a0,-1
    163a:	40b2                	lw	ra,12(sp)
    163c:	4422                	lw	s0,8(sp)
    163e:	4492                	lw	s1,4(sp)
    1640:	4902                	lw	s2,0(sp)
    1642:	0141                	addi	sp,sp,16
    1644:	8082                	ret
    1646:	00001797          	auipc	a5,0x1
    164a:	2a278793          	addi	a5,a5,674 # 28e8 <__sf_fake_stdout>
    164e:	00f41463          	bne	s0,a5,1656 <__swsetup_r+0x72>
    1652:	4480                	lw	s0,8(s1)
    1654:	b7c1                	j	1614 <__swsetup_r+0x30>
    1656:	00001797          	auipc	a5,0x1
    165a:	25278793          	addi	a5,a5,594 # 28a8 <__sf_fake_stderr>
    165e:	faf41be3          	bne	s0,a5,1614 <__swsetup_r+0x30>
    1662:	44c0                	lw	s0,12(s1)
    1664:	bf45                	j	1614 <__swsetup_r+0x30>
    1666:	8b91                	andi	a5,a5,4
    1668:	c78d                	beqz	a5,1692 <__swsetup_r+0xae>
    166a:	584c                	lw	a1,52(s0)
    166c:	c989                	beqz	a1,167e <__swsetup_r+0x9a>
    166e:	04440793          	addi	a5,s0,68
    1672:	00f58463          	beq	a1,a5,167a <__swsetup_r+0x96>
    1676:	854a                	mv	a0,s2
    1678:	2391                	jal	1bbc <_free_r>
    167a:	02042a23          	sw	zero,52(s0)
    167e:	00c45783          	lhu	a5,12(s0)
    1682:	00042223          	sw	zero,4(s0)
    1686:	fdb7f793          	andi	a5,a5,-37
    168a:	00f41623          	sh	a5,12(s0)
    168e:	481c                	lw	a5,16(s0)
    1690:	c01c                	sw	a5,0(s0)
    1692:	00c45783          	lhu	a5,12(s0)
    1696:	0087e793          	ori	a5,a5,8
    169a:	00f41623          	sh	a5,12(s0)
    169e:	481c                	lw	a5,16(s0)
    16a0:	ef81                	bnez	a5,16b8 <__swsetup_r+0xd4>
    16a2:	00c45783          	lhu	a5,12(s0)
    16a6:	20000713          	li	a4,512
    16aa:	2807f793          	andi	a5,a5,640
    16ae:	00e78563          	beq	a5,a4,16b8 <__swsetup_r+0xd4>
    16b2:	85a2                	mv	a1,s0
    16b4:	854a                	mv	a0,s2
    16b6:	21a5                	jal	1b1e <__smakebuf_r>
    16b8:	00c45783          	lhu	a5,12(s0)
    16bc:	0017f713          	andi	a4,a5,1
    16c0:	c705                	beqz	a4,16e8 <__swsetup_r+0x104>
    16c2:	485c                	lw	a5,20(s0)
    16c4:	00042423          	sw	zero,8(s0)
    16c8:	40f007b3          	neg	a5,a5
    16cc:	cc1c                	sw	a5,24(s0)
    16ce:	481c                	lw	a5,16(s0)
    16d0:	4501                	li	a0,0
    16d2:	f7a5                	bnez	a5,163a <__swsetup_r+0x56>
    16d4:	00c41783          	lh	a5,12(s0)
    16d8:	0807f713          	andi	a4,a5,128
    16dc:	df39                	beqz	a4,163a <__swsetup_r+0x56>
    16de:	0407e793          	ori	a5,a5,64
    16e2:	00f41623          	sh	a5,12(s0)
    16e6:	bf89                	j	1638 <__swsetup_r+0x54>
    16e8:	8b89                	andi	a5,a5,2
    16ea:	4701                	li	a4,0
    16ec:	e391                	bnez	a5,16f0 <__swsetup_r+0x10c>
    16ee:	4858                	lw	a4,20(s0)
    16f0:	c418                	sw	a4,8(s0)
    16f2:	bff1                	j	16ce <__swsetup_r+0xea>

000016f4 <__sflush_r>:
__sflush_r():
    16f4:	00c5d783          	lhu	a5,12(a1)
    16f8:	1101                	addi	sp,sp,-32
    16fa:	cc22                	sw	s0,24(sp)
    16fc:	ca26                	sw	s1,20(sp)
    16fe:	ce06                	sw	ra,28(sp)
    1700:	c84a                	sw	s2,16(sp)
    1702:	c64e                	sw	s3,12(sp)
    1704:	0087f713          	andi	a4,a5,8
    1708:	84aa                	mv	s1,a0
    170a:	842e                	mv	s0,a1
    170c:	ef71                	bnez	a4,17e8 <__sflush_r+0xf4>
    170e:	41d8                	lw	a4,4(a1)
    1710:	00e04d63          	bgtz	a4,172a <__sflush_r+0x36>
    1714:	41b8                	lw	a4,64(a1)
    1716:	00e04a63          	bgtz	a4,172a <__sflush_r+0x36>
    171a:	4501                	li	a0,0
    171c:	40f2                	lw	ra,28(sp)
    171e:	4462                	lw	s0,24(sp)
    1720:	44d2                	lw	s1,20(sp)
    1722:	4942                	lw	s2,16(sp)
    1724:	49b2                	lw	s3,12(sp)
    1726:	6105                	addi	sp,sp,32
    1728:	8082                	ret
    172a:	5458                	lw	a4,44(s0)
    172c:	d77d                	beqz	a4,171a <__sflush_r+0x26>
    172e:	0004a903          	lw	s2,0(s1)
    1732:	01379693          	slli	a3,a5,0x13
    1736:	0004a023          	sw	zero,0(s1)
    173a:	0606dd63          	bgez	a3,17b4 <__sflush_r+0xc0>
    173e:	4870                	lw	a2,84(s0)
    1740:	00c45783          	lhu	a5,12(s0)
    1744:	8b91                	andi	a5,a5,4
    1746:	c799                	beqz	a5,1754 <__sflush_r+0x60>
    1748:	405c                	lw	a5,4(s0)
    174a:	8e1d                	sub	a2,a2,a5
    174c:	585c                	lw	a5,52(s0)
    174e:	c399                	beqz	a5,1754 <__sflush_r+0x60>
    1750:	403c                	lw	a5,64(s0)
    1752:	8e1d                	sub	a2,a2,a5
    1754:	545c                	lw	a5,44(s0)
    1756:	500c                	lw	a1,32(s0)
    1758:	4681                	li	a3,0
    175a:	8526                	mv	a0,s1
    175c:	9782                	jalr	a5
    175e:	57fd                	li	a5,-1
    1760:	00c45703          	lhu	a4,12(s0)
    1764:	00f51d63          	bne	a0,a5,177e <__sflush_r+0x8a>
    1768:	4094                	lw	a3,0(s1)
    176a:	47f5                	li	a5,29
    176c:	06d7e863          	bltu	a5,a3,17dc <__sflush_r+0xe8>
    1770:	204007b7          	lui	a5,0x20400
    1774:	0785                	addi	a5,a5,1
    1776:	00d7d7b3          	srl	a5,a5,a3
    177a:	8b85                	andi	a5,a5,1
    177c:	c3a5                	beqz	a5,17dc <__sflush_r+0xe8>
    177e:	481c                	lw	a5,16(s0)
    1780:	00042223          	sw	zero,4(s0)
    1784:	c01c                	sw	a5,0(s0)
    1786:	01371793          	slli	a5,a4,0x13
    178a:	0007d863          	bgez	a5,179a <__sflush_r+0xa6>
    178e:	57fd                	li	a5,-1
    1790:	00f51463          	bne	a0,a5,1798 <__sflush_r+0xa4>
    1794:	409c                	lw	a5,0(s1)
    1796:	e391                	bnez	a5,179a <__sflush_r+0xa6>
    1798:	c868                	sw	a0,84(s0)
    179a:	584c                	lw	a1,52(s0)
    179c:	0124a023          	sw	s2,0(s1)
    17a0:	ddad                	beqz	a1,171a <__sflush_r+0x26>
    17a2:	04440793          	addi	a5,s0,68
    17a6:	00f58463          	beq	a1,a5,17ae <__sflush_r+0xba>
    17aa:	8526                	mv	a0,s1
    17ac:	2901                	jal	1bbc <_free_r>
    17ae:	02042a23          	sw	zero,52(s0)
    17b2:	b7a5                	j	171a <__sflush_r+0x26>
    17b4:	500c                	lw	a1,32(s0)
    17b6:	4601                	li	a2,0
    17b8:	4685                	li	a3,1
    17ba:	8526                	mv	a0,s1
    17bc:	9702                	jalr	a4
    17be:	57fd                	li	a5,-1
    17c0:	862a                	mv	a2,a0
    17c2:	f6f51fe3          	bne	a0,a5,1740 <__sflush_r+0x4c>
    17c6:	409c                	lw	a5,0(s1)
    17c8:	dfa5                	beqz	a5,1740 <__sflush_r+0x4c>
    17ca:	4775                	li	a4,29
    17cc:	00e78563          	beq	a5,a4,17d6 <__sflush_r+0xe2>
    17d0:	4759                	li	a4,22
    17d2:	04e79463          	bne	a5,a4,181a <__sflush_r+0x126>
    17d6:	0124a023          	sw	s2,0(s1)
    17da:	b781                	j	171a <__sflush_r+0x26>
    17dc:	04076713          	ori	a4,a4,64
    17e0:	00e41623          	sh	a4,12(s0)
    17e4:	557d                	li	a0,-1
    17e6:	bf1d                	j	171c <__sflush_r+0x28>
    17e8:	0105a983          	lw	s3,16(a1)
    17ec:	f20987e3          	beqz	s3,171a <__sflush_r+0x26>
    17f0:	0005a903          	lw	s2,0(a1)
    17f4:	8b8d                	andi	a5,a5,3
    17f6:	0135a023          	sw	s3,0(a1)
    17fa:	41390933          	sub	s2,s2,s3
    17fe:	4701                	li	a4,0
    1800:	e391                	bnez	a5,1804 <__sflush_r+0x110>
    1802:	49d8                	lw	a4,20(a1)
    1804:	c418                	sw	a4,8(s0)
    1806:	f1205ae3          	blez	s2,171a <__sflush_r+0x26>
    180a:	541c                	lw	a5,40(s0)
    180c:	500c                	lw	a1,32(s0)
    180e:	86ca                	mv	a3,s2
    1810:	864e                	mv	a2,s3
    1812:	8526                	mv	a0,s1
    1814:	9782                	jalr	a5
    1816:	00a04963          	bgtz	a0,1828 <__sflush_r+0x134>
    181a:	00c45783          	lhu	a5,12(s0)
    181e:	0407e793          	ori	a5,a5,64
    1822:	00f41623          	sh	a5,12(s0)
    1826:	bf7d                	j	17e4 <__sflush_r+0xf0>
    1828:	99aa                	add	s3,s3,a0
    182a:	40a90933          	sub	s2,s2,a0
    182e:	bfe1                	j	1806 <__sflush_r+0x112>

00001830 <_fflush_r>:
_fflush_r():
    1830:	499c                	lw	a5,16(a1)
    1832:	cfb9                	beqz	a5,1890 <_fflush_r+0x60>
    1834:	1101                	addi	sp,sp,-32
    1836:	cc22                	sw	s0,24(sp)
    1838:	ce06                	sw	ra,28(sp)
    183a:	842a                	mv	s0,a0
    183c:	c511                	beqz	a0,1848 <_fflush_r+0x18>
    183e:	4d1c                	lw	a5,24(a0)
    1840:	e781                	bnez	a5,1848 <_fflush_r+0x18>
    1842:	c62e                	sw	a1,12(sp)
    1844:	2229                	jal	194e <__sinit>
    1846:	45b2                	lw	a1,12(sp)
    1848:	00001797          	auipc	a5,0x1
    184c:	08078793          	addi	a5,a5,128 # 28c8 <__sf_fake_stdin>
    1850:	00f59b63          	bne	a1,a5,1866 <_fflush_r+0x36>
    1854:	404c                	lw	a1,4(s0)
    1856:	00c59783          	lh	a5,12(a1)
    185a:	c795                	beqz	a5,1886 <_fflush_r+0x56>
    185c:	8522                	mv	a0,s0
    185e:	4462                	lw	s0,24(sp)
    1860:	40f2                	lw	ra,28(sp)
    1862:	6105                	addi	sp,sp,32
    1864:	bd41                	j	16f4 <__sflush_r>
    1866:	00001797          	auipc	a5,0x1
    186a:	08278793          	addi	a5,a5,130 # 28e8 <__sf_fake_stdout>
    186e:	00f59463          	bne	a1,a5,1876 <_fflush_r+0x46>
    1872:	440c                	lw	a1,8(s0)
    1874:	b7cd                	j	1856 <_fflush_r+0x26>
    1876:	00001797          	auipc	a5,0x1
    187a:	03278793          	addi	a5,a5,50 # 28a8 <__sf_fake_stderr>
    187e:	fcf59ce3          	bne	a1,a5,1856 <_fflush_r+0x26>
    1882:	444c                	lw	a1,12(s0)
    1884:	bfc9                	j	1856 <_fflush_r+0x26>
    1886:	40f2                	lw	ra,28(sp)
    1888:	4462                	lw	s0,24(sp)
    188a:	4501                	li	a0,0
    188c:	6105                	addi	sp,sp,32
    188e:	8082                	ret
    1890:	4501                	li	a0,0
    1892:	8082                	ret

00001894 <std>:
std():
    1894:	1141                	addi	sp,sp,-16
    1896:	c422                	sw	s0,8(sp)
    1898:	c606                	sw	ra,12(sp)
    189a:	842a                	mv	s0,a0
    189c:	00b51623          	sh	a1,12(a0)
    18a0:	00c51723          	sh	a2,14(a0)
    18a4:	00052023          	sw	zero,0(a0)
    18a8:	00052223          	sw	zero,4(a0)
    18ac:	00052423          	sw	zero,8(a0)
    18b0:	06052223          	sw	zero,100(a0)
    18b4:	00052823          	sw	zero,16(a0)
    18b8:	00052a23          	sw	zero,20(a0)
    18bc:	00052c23          	sw	zero,24(a0)
    18c0:	4621                	li	a2,8
    18c2:	4581                	li	a1,0
    18c4:	05c50513          	addi	a0,a0,92
    18c8:	856ff0ef          	jal	ra,91e <memset>
    18cc:	00001797          	auipc	a5,0x1
    18d0:	bd878793          	addi	a5,a5,-1064 # 24a4 <__sread>
    18d4:	d05c                	sw	a5,36(s0)
    18d6:	00001797          	auipc	a5,0x1
    18da:	bfe78793          	addi	a5,a5,-1026 # 24d4 <__swrite>
    18de:	d41c                	sw	a5,40(s0)
    18e0:	00001797          	auipc	a5,0x1
    18e4:	c4278793          	addi	a5,a5,-958 # 2522 <__sseek>
    18e8:	d45c                	sw	a5,44(s0)
    18ea:	00001797          	auipc	a5,0x1
    18ee:	c6e78793          	addi	a5,a5,-914 # 2558 <__sclose>
    18f2:	d000                	sw	s0,32(s0)
    18f4:	d81c                	sw	a5,48(s0)
    18f6:	40b2                	lw	ra,12(sp)
    18f8:	4422                	lw	s0,8(sp)
    18fa:	0141                	addi	sp,sp,16
    18fc:	8082                	ret

000018fe <_cleanup_r>:
_cleanup_r():
    18fe:	00000597          	auipc	a1,0x0
    1902:	f3258593          	addi	a1,a1,-206 # 1830 <_fflush_r>
    1906:	aa89                	j	1a58 <_fwalk_reent>

00001908 <__sfmoreglue>:
__sfmoreglue():
    1908:	1141                	addi	sp,sp,-16
    190a:	c226                	sw	s1,4(sp)
    190c:	06800613          	li	a2,104
    1910:	fff58493          	addi	s1,a1,-1
    1914:	02c484b3          	mul	s1,s1,a2
    1918:	c04a                	sw	s2,0(sp)
    191a:	892e                	mv	s2,a1
    191c:	c422                	sw	s0,8(sp)
    191e:	c606                	sw	ra,12(sp)
    1920:	07448593          	addi	a1,s1,116
    1924:	2681                	jal	1c64 <_malloc_r>
    1926:	842a                	mv	s0,a0
    1928:	cd01                	beqz	a0,1940 <__sfmoreglue+0x38>
    192a:	00052023          	sw	zero,0(a0)
    192e:	01252223          	sw	s2,4(a0)
    1932:	0531                	addi	a0,a0,12
    1934:	c408                	sw	a0,8(s0)
    1936:	06848613          	addi	a2,s1,104
    193a:	4581                	li	a1,0
    193c:	fe3fe0ef          	jal	ra,91e <memset>
    1940:	8522                	mv	a0,s0
    1942:	40b2                	lw	ra,12(sp)
    1944:	4422                	lw	s0,8(sp)
    1946:	4492                	lw	s1,4(sp)
    1948:	4902                	lw	s2,0(sp)
    194a:	0141                	addi	sp,sp,16
    194c:	8082                	ret

0000194e <__sinit>:
__sinit():
    194e:	4d1c                	lw	a5,24(a0)
    1950:	e3bd                	bnez	a5,19b6 <__sinit+0x68>
    1952:	1141                	addi	sp,sp,-16
    1954:	c606                	sw	ra,12(sp)
    1956:	c422                	sw	s0,8(sp)
    1958:	00000797          	auipc	a5,0x0
    195c:	fa678793          	addi	a5,a5,-90 # 18fe <_cleanup_r>
    1960:	d51c                	sw	a5,40(a0)
    1962:	00001797          	auipc	a5,0x1
    1966:	fe278793          	addi	a5,a5,-30 # 2944 <_global_impure_ptr>
    196a:	439c                	lw	a5,0(a5)
    196c:	04052423          	sw	zero,72(a0)
    1970:	04052623          	sw	zero,76(a0)
    1974:	04052823          	sw	zero,80(a0)
    1978:	00f51463          	bne	a0,a5,1980 <__sinit+0x32>
    197c:	4785                	li	a5,1
    197e:	cd1c                	sw	a5,24(a0)
    1980:	842a                	mv	s0,a0
    1982:	281d                	jal	19b8 <__sfp>
    1984:	c048                	sw	a0,4(s0)
    1986:	8522                	mv	a0,s0
    1988:	2805                	jal	19b8 <__sfp>
    198a:	c408                	sw	a0,8(s0)
    198c:	8522                	mv	a0,s0
    198e:	202d                	jal	19b8 <__sfp>
    1990:	c448                	sw	a0,12(s0)
    1992:	4048                	lw	a0,4(s0)
    1994:	4601                	li	a2,0
    1996:	4591                	li	a1,4
    1998:	3df5                	jal	1894 <std>
    199a:	4408                	lw	a0,8(s0)
    199c:	4605                	li	a2,1
    199e:	45a5                	li	a1,9
    19a0:	3dd5                	jal	1894 <std>
    19a2:	4448                	lw	a0,12(s0)
    19a4:	4609                	li	a2,2
    19a6:	45c9                	li	a1,18
    19a8:	35f5                	jal	1894 <std>
    19aa:	4785                	li	a5,1
    19ac:	cc1c                	sw	a5,24(s0)
    19ae:	40b2                	lw	ra,12(sp)
    19b0:	4422                	lw	s0,8(sp)
    19b2:	0141                	addi	sp,sp,16
    19b4:	8082                	ret
    19b6:	8082                	ret

000019b8 <__sfp>:
__sfp():
    19b8:	1141                	addi	sp,sp,-16
    19ba:	00001797          	auipc	a5,0x1
    19be:	f8a78793          	addi	a5,a5,-118 # 2944 <_global_impure_ptr>
    19c2:	c226                	sw	s1,4(sp)
    19c4:	4384                	lw	s1,0(a5)
    19c6:	c04a                	sw	s2,0(sp)
    19c8:	c606                	sw	ra,12(sp)
    19ca:	4c9c                	lw	a5,24(s1)
    19cc:	c422                	sw	s0,8(sp)
    19ce:	892a                	mv	s2,a0
    19d0:	e399                	bnez	a5,19d6 <__sfp+0x1e>
    19d2:	8526                	mv	a0,s1
    19d4:	3fad                	jal	194e <__sinit>
    19d6:	04848493          	addi	s1,s1,72
    19da:	4480                	lw	s0,8(s1)
    19dc:	40dc                	lw	a5,4(s1)
    19de:	17fd                	addi	a5,a5,-1
    19e0:	0007d663          	bgez	a5,19ec <__sfp+0x34>
    19e4:	409c                	lw	a5,0(s1)
    19e6:	cfb9                	beqz	a5,1a44 <__sfp+0x8c>
    19e8:	4084                	lw	s1,0(s1)
    19ea:	bfc5                	j	19da <__sfp+0x22>
    19ec:	00c41703          	lh	a4,12(s0)
    19f0:	e739                	bnez	a4,1a3e <__sfp+0x86>
    19f2:	77c1                	lui	a5,0xffff0
    19f4:	0785                	addi	a5,a5,1
    19f6:	06042223          	sw	zero,100(s0)
    19fa:	00042023          	sw	zero,0(s0)
    19fe:	00042223          	sw	zero,4(s0)
    1a02:	00042423          	sw	zero,8(s0)
    1a06:	c45c                	sw	a5,12(s0)
    1a08:	00042823          	sw	zero,16(s0)
    1a0c:	00042a23          	sw	zero,20(s0)
    1a10:	00042c23          	sw	zero,24(s0)
    1a14:	4621                	li	a2,8
    1a16:	4581                	li	a1,0
    1a18:	05c40513          	addi	a0,s0,92
    1a1c:	f03fe0ef          	jal	ra,91e <memset>
    1a20:	02042a23          	sw	zero,52(s0)
    1a24:	02042c23          	sw	zero,56(s0)
    1a28:	04042423          	sw	zero,72(s0)
    1a2c:	04042623          	sw	zero,76(s0)
    1a30:	8522                	mv	a0,s0
    1a32:	40b2                	lw	ra,12(sp)
    1a34:	4422                	lw	s0,8(sp)
    1a36:	4492                	lw	s1,4(sp)
    1a38:	4902                	lw	s2,0(sp)
    1a3a:	0141                	addi	sp,sp,16
    1a3c:	8082                	ret
    1a3e:	06840413          	addi	s0,s0,104
    1a42:	bf71                	j	19de <__sfp+0x26>
    1a44:	4591                	li	a1,4
    1a46:	854a                	mv	a0,s2
    1a48:	35c1                	jal	1908 <__sfmoreglue>
    1a4a:	c088                	sw	a0,0(s1)
    1a4c:	fd51                	bnez	a0,19e8 <__sfp+0x30>
    1a4e:	47b1                	li	a5,12
    1a50:	00f92023          	sw	a5,0(s2)
    1a54:	4401                	li	s0,0
    1a56:	bfe9                	j	1a30 <__sfp+0x78>

00001a58 <_fwalk_reent>:
_fwalk_reent():
    1a58:	7179                	addi	sp,sp,-48
    1a5a:	d422                	sw	s0,40(sp)
    1a5c:	d04a                	sw	s2,32(sp)
    1a5e:	cc52                	sw	s4,24(sp)
    1a60:	ca56                	sw	s5,20(sp)
    1a62:	c85a                	sw	s6,16(sp)
    1a64:	c65e                	sw	s7,12(sp)
    1a66:	d606                	sw	ra,44(sp)
    1a68:	d226                	sw	s1,36(sp)
    1a6a:	ce4e                	sw	s3,28(sp)
    1a6c:	8a2a                	mv	s4,a0
    1a6e:	8aae                	mv	s5,a1
    1a70:	04850413          	addi	s0,a0,72
    1a74:	4901                	li	s2,0
    1a76:	4b05                	li	s6,1
    1a78:	5bfd                	li	s7,-1
    1a7a:	ec09                	bnez	s0,1a94 <_fwalk_reent+0x3c>
    1a7c:	50b2                	lw	ra,44(sp)
    1a7e:	5422                	lw	s0,40(sp)
    1a80:	854a                	mv	a0,s2
    1a82:	5492                	lw	s1,36(sp)
    1a84:	5902                	lw	s2,32(sp)
    1a86:	49f2                	lw	s3,28(sp)
    1a88:	4a62                	lw	s4,24(sp)
    1a8a:	4ad2                	lw	s5,20(sp)
    1a8c:	4b42                	lw	s6,16(sp)
    1a8e:	4bb2                	lw	s7,12(sp)
    1a90:	6145                	addi	sp,sp,48
    1a92:	8082                	ret
    1a94:	4404                	lw	s1,8(s0)
    1a96:	00442983          	lw	s3,4(s0)
    1a9a:	19fd                	addi	s3,s3,-1
    1a9c:	0009d463          	bgez	s3,1aa4 <_fwalk_reent+0x4c>
    1aa0:	4000                	lw	s0,0(s0)
    1aa2:	bfe1                	j	1a7a <_fwalk_reent+0x22>
    1aa4:	00c4d783          	lhu	a5,12(s1)
    1aa8:	00fb7b63          	bgeu	s6,a5,1abe <_fwalk_reent+0x66>
    1aac:	00e49783          	lh	a5,14(s1)
    1ab0:	01778763          	beq	a5,s7,1abe <_fwalk_reent+0x66>
    1ab4:	85a6                	mv	a1,s1
    1ab6:	8552                	mv	a0,s4
    1ab8:	9a82                	jalr	s5
    1aba:	00a96933          	or	s2,s2,a0
    1abe:	06848493          	addi	s1,s1,104
    1ac2:	bfe1                	j	1a9a <_fwalk_reent+0x42>

00001ac4 <__swhatbuf_r>:
__swhatbuf_r():
    1ac4:	7119                	addi	sp,sp,-128
    1ac6:	daa6                	sw	s1,116(sp)
    1ac8:	84ae                	mv	s1,a1
    1aca:	00e59583          	lh	a1,14(a1)
    1ace:	dca2                	sw	s0,120(sp)
    1ad0:	de86                	sw	ra,124(sp)
    1ad2:	8432                	mv	s0,a2
    1ad4:	0005dc63          	bgez	a1,1aec <__swhatbuf_r+0x28>
    1ad8:	00c4d783          	lhu	a5,12(s1)
    1adc:	0006a023          	sw	zero,0(a3)
    1ae0:	0807f793          	andi	a5,a5,128
    1ae4:	e785                	bnez	a5,1b0c <__swhatbuf_r+0x48>
    1ae6:	40000793          	li	a5,1024
    1aea:	a01d                	j	1b10 <__swhatbuf_r+0x4c>
    1aec:	0830                	addi	a2,sp,24
    1aee:	c636                	sw	a3,12(sp)
    1af0:	2c5000ef          	jal	ra,25b4 <_fstat_r>
    1af4:	46b2                	lw	a3,12(sp)
    1af6:	fe0541e3          	bltz	a0,1ad8 <__swhatbuf_r+0x14>
    1afa:	4772                	lw	a4,28(sp)
    1afc:	67bd                	lui	a5,0xf
    1afe:	8ff9                	and	a5,a5,a4
    1b00:	7779                	lui	a4,0xffffe
    1b02:	97ba                	add	a5,a5,a4
    1b04:	0017b793          	seqz	a5,a5
    1b08:	c29c                	sw	a5,0(a3)
    1b0a:	bff1                	j	1ae6 <__swhatbuf_r+0x22>
    1b0c:	04000793          	li	a5,64
    1b10:	c01c                	sw	a5,0(s0)
    1b12:	50f6                	lw	ra,124(sp)
    1b14:	5466                	lw	s0,120(sp)
    1b16:	54d6                	lw	s1,116(sp)
    1b18:	4501                	li	a0,0
    1b1a:	6109                	addi	sp,sp,128
    1b1c:	8082                	ret

00001b1e <__smakebuf_r>:
__smakebuf_r():
    1b1e:	00c5d783          	lhu	a5,12(a1)
    1b22:	1101                	addi	sp,sp,-32
    1b24:	cc22                	sw	s0,24(sp)
    1b26:	ce06                	sw	ra,28(sp)
    1b28:	ca26                	sw	s1,20(sp)
    1b2a:	c84a                	sw	s2,16(sp)
    1b2c:	8b89                	andi	a5,a5,2
    1b2e:	842e                	mv	s0,a1
    1b30:	cf89                	beqz	a5,1b4a <__smakebuf_r+0x2c>
    1b32:	04740793          	addi	a5,s0,71
    1b36:	c01c                	sw	a5,0(s0)
    1b38:	c81c                	sw	a5,16(s0)
    1b3a:	4785                	li	a5,1
    1b3c:	c85c                	sw	a5,20(s0)
    1b3e:	40f2                	lw	ra,28(sp)
    1b40:	4462                	lw	s0,24(sp)
    1b42:	44d2                	lw	s1,20(sp)
    1b44:	4942                	lw	s2,16(sp)
    1b46:	6105                	addi	sp,sp,32
    1b48:	8082                	ret
    1b4a:	0074                	addi	a3,sp,12
    1b4c:	0030                	addi	a2,sp,8
    1b4e:	84aa                	mv	s1,a0
    1b50:	3f95                	jal	1ac4 <__swhatbuf_r>
    1b52:	45a2                	lw	a1,8(sp)
    1b54:	892a                	mv	s2,a0
    1b56:	8526                	mv	a0,s1
    1b58:	2231                	jal	1c64 <_malloc_r>
    1b5a:	ed01                	bnez	a0,1b72 <__smakebuf_r+0x54>
    1b5c:	00c41783          	lh	a5,12(s0)
    1b60:	2007f713          	andi	a4,a5,512
    1b64:	ff69                	bnez	a4,1b3e <__smakebuf_r+0x20>
    1b66:	9bf1                	andi	a5,a5,-4
    1b68:	0027e793          	ori	a5,a5,2
    1b6c:	00f41623          	sh	a5,12(s0)
    1b70:	b7c9                	j	1b32 <__smakebuf_r+0x14>
    1b72:	00000797          	auipc	a5,0x0
    1b76:	d8c78793          	addi	a5,a5,-628 # 18fe <_cleanup_r>
    1b7a:	d49c                	sw	a5,40(s1)
    1b7c:	00c45783          	lhu	a5,12(s0)
    1b80:	c008                	sw	a0,0(s0)
    1b82:	c808                	sw	a0,16(s0)
    1b84:	0807e793          	ori	a5,a5,128
    1b88:	00f41623          	sh	a5,12(s0)
    1b8c:	47a2                	lw	a5,8(sp)
    1b8e:	c85c                	sw	a5,20(s0)
    1b90:	47b2                	lw	a5,12(sp)
    1b92:	cf91                	beqz	a5,1bae <__smakebuf_r+0x90>
    1b94:	00e41583          	lh	a1,14(s0)
    1b98:	8526                	mv	a0,s1
    1b9a:	245000ef          	jal	ra,25de <_isatty_r>
    1b9e:	c901                	beqz	a0,1bae <__smakebuf_r+0x90>
    1ba0:	00c45783          	lhu	a5,12(s0)
    1ba4:	9bf1                	andi	a5,a5,-4
    1ba6:	0017e793          	ori	a5,a5,1
    1baa:	00f41623          	sh	a5,12(s0)
    1bae:	00c45783          	lhu	a5,12(s0)
    1bb2:	00f96933          	or	s2,s2,a5
    1bb6:	01241623          	sh	s2,12(s0)
    1bba:	b751                	j	1b3e <__smakebuf_r+0x20>

00001bbc <_free_r>:
_free_r():
    1bbc:	c1dd                	beqz	a1,1c62 <_free_r+0xa6>
    1bbe:	ffc5a783          	lw	a5,-4(a1)
    1bc2:	1141                	addi	sp,sp,-16
    1bc4:	c422                	sw	s0,8(sp)
    1bc6:	c606                	sw	ra,12(sp)
    1bc8:	c226                	sw	s1,4(sp)
    1bca:	ffc58413          	addi	s0,a1,-4
    1bce:	0007d363          	bgez	a5,1bd4 <_free_r+0x18>
    1bd2:	943e                	add	s0,s0,a5
    1bd4:	84aa                	mv	s1,a0
    1bd6:	277000ef          	jal	ra,264c <__malloc_lock>
    1bda:	82818793          	addi	a5,gp,-2008 # 20004110 <__malloc_free_list>
    1bde:	439c                	lw	a5,0(a5)
    1be0:	ef81                	bnez	a5,1bf8 <_free_r+0x3c>
    1be2:	00042223          	sw	zero,4(s0)
    1be6:	8281a423          	sw	s0,-2008(gp) # 20004110 <__malloc_free_list>
    1bea:	4422                	lw	s0,8(sp)
    1bec:	40b2                	lw	ra,12(sp)
    1bee:	8526                	mv	a0,s1
    1bf0:	4492                	lw	s1,4(sp)
    1bf2:	0141                	addi	sp,sp,16
    1bf4:	25b0006f          	j	264e <__malloc_unlock>
    1bf8:	00f47e63          	bgeu	s0,a5,1c14 <_free_r+0x58>
    1bfc:	4014                	lw	a3,0(s0)
    1bfe:	00d40733          	add	a4,s0,a3
    1c02:	00e79663          	bne	a5,a4,1c0e <_free_r+0x52>
    1c06:	4398                	lw	a4,0(a5)
    1c08:	43dc                	lw	a5,4(a5)
    1c0a:	9736                	add	a4,a4,a3
    1c0c:	c018                	sw	a4,0(s0)
    1c0e:	c05c                	sw	a5,4(s0)
    1c10:	bfd9                	j	1be6 <_free_r+0x2a>
    1c12:	87ba                	mv	a5,a4
    1c14:	43d8                	lw	a4,4(a5)
    1c16:	c319                	beqz	a4,1c1c <_free_r+0x60>
    1c18:	fee47de3          	bgeu	s0,a4,1c12 <_free_r+0x56>
    1c1c:	4394                	lw	a3,0(a5)
    1c1e:	00d78633          	add	a2,a5,a3
    1c22:	00861f63          	bne	a2,s0,1c40 <_free_r+0x84>
    1c26:	4010                	lw	a2,0(s0)
    1c28:	96b2                	add	a3,a3,a2
    1c2a:	c394                	sw	a3,0(a5)
    1c2c:	00d78633          	add	a2,a5,a3
    1c30:	fac71de3          	bne	a4,a2,1bea <_free_r+0x2e>
    1c34:	4310                	lw	a2,0(a4)
    1c36:	4358                	lw	a4,4(a4)
    1c38:	96b2                	add	a3,a3,a2
    1c3a:	c394                	sw	a3,0(a5)
    1c3c:	c3d8                	sw	a4,4(a5)
    1c3e:	b775                	j	1bea <_free_r+0x2e>
    1c40:	00c47563          	bgeu	s0,a2,1c4a <_free_r+0x8e>
    1c44:	47b1                	li	a5,12
    1c46:	c09c                	sw	a5,0(s1)
    1c48:	b74d                	j	1bea <_free_r+0x2e>
    1c4a:	4010                	lw	a2,0(s0)
    1c4c:	00c406b3          	add	a3,s0,a2
    1c50:	00d71663          	bne	a4,a3,1c5c <_free_r+0xa0>
    1c54:	4314                	lw	a3,0(a4)
    1c56:	4358                	lw	a4,4(a4)
    1c58:	96b2                	add	a3,a3,a2
    1c5a:	c014                	sw	a3,0(s0)
    1c5c:	c058                	sw	a4,4(s0)
    1c5e:	c3c0                	sw	s0,4(a5)
    1c60:	b769                	j	1bea <_free_r+0x2e>
    1c62:	8082                	ret

00001c64 <_malloc_r>:
_malloc_r():
    1c64:	1101                	addi	sp,sp,-32
    1c66:	ca26                	sw	s1,20(sp)
    1c68:	00358493          	addi	s1,a1,3
    1c6c:	98f1                	andi	s1,s1,-4
    1c6e:	ce06                	sw	ra,28(sp)
    1c70:	cc22                	sw	s0,24(sp)
    1c72:	c84a                	sw	s2,16(sp)
    1c74:	c64e                	sw	s3,12(sp)
    1c76:	04a1                	addi	s1,s1,8
    1c78:	47b1                	li	a5,12
    1c7a:	04f4f563          	bgeu	s1,a5,1cc4 <_malloc_r+0x60>
    1c7e:	44b1                	li	s1,12
    1c80:	04b4e463          	bltu	s1,a1,1cc8 <_malloc_r+0x64>
    1c84:	892a                	mv	s2,a0
    1c86:	1c7000ef          	jal	ra,264c <__malloc_lock>
    1c8a:	82818793          	addi	a5,gp,-2008 # 20004110 <__malloc_free_list>
    1c8e:	4398                	lw	a4,0(a5)
    1c90:	843a                	mv	s0,a4
    1c92:	e429                	bnez	s0,1cdc <_malloc_r+0x78>
    1c94:	82c18793          	addi	a5,gp,-2004 # 20004114 <__malloc_sbrk_start>
    1c98:	439c                	lw	a5,0(a5)
    1c9a:	e799                	bnez	a5,1ca8 <_malloc_r+0x44>
    1c9c:	4581                	li	a1,0
    1c9e:	854a                	mv	a0,s2
    1ca0:	7dc000ef          	jal	ra,247c <_sbrk_r>
    1ca4:	82a1a623          	sw	a0,-2004(gp) # 20004114 <__malloc_sbrk_start>
    1ca8:	85a6                	mv	a1,s1
    1caa:	854a                	mv	a0,s2
    1cac:	7d0000ef          	jal	ra,247c <_sbrk_r>
    1cb0:	59fd                	li	s3,-1
    1cb2:	07351963          	bne	a0,s3,1d24 <_malloc_r+0xc0>
    1cb6:	47b1                	li	a5,12
    1cb8:	00f92023          	sw	a5,0(s2)
    1cbc:	854a                	mv	a0,s2
    1cbe:	191000ef          	jal	ra,264e <__malloc_unlock>
    1cc2:	a029                	j	1ccc <_malloc_r+0x68>
    1cc4:	fa04dee3          	bgez	s1,1c80 <_malloc_r+0x1c>
    1cc8:	47b1                	li	a5,12
    1cca:	c11c                	sw	a5,0(a0)
    1ccc:	4501                	li	a0,0
    1cce:	40f2                	lw	ra,28(sp)
    1cd0:	4462                	lw	s0,24(sp)
    1cd2:	44d2                	lw	s1,20(sp)
    1cd4:	4942                	lw	s2,16(sp)
    1cd6:	49b2                	lw	s3,12(sp)
    1cd8:	6105                	addi	sp,sp,32
    1cda:	8082                	ret
    1cdc:	401c                	lw	a5,0(s0)
    1cde:	8f85                	sub	a5,a5,s1
    1ce0:	0207cf63          	bltz	a5,1d1e <_malloc_r+0xba>
    1ce4:	46ad                	li	a3,11
    1ce6:	00f6f663          	bgeu	a3,a5,1cf2 <_malloc_r+0x8e>
    1cea:	c01c                	sw	a5,0(s0)
    1cec:	943e                	add	s0,s0,a5
    1cee:	c004                	sw	s1,0(s0)
    1cf0:	a031                	j	1cfc <_malloc_r+0x98>
    1cf2:	405c                	lw	a5,4(s0)
    1cf4:	02871363          	bne	a4,s0,1d1a <_malloc_r+0xb6>
    1cf8:	82f1a423          	sw	a5,-2008(gp) # 20004110 <__malloc_free_list>
    1cfc:	854a                	mv	a0,s2
    1cfe:	151000ef          	jal	ra,264e <__malloc_unlock>
    1d02:	00b40513          	addi	a0,s0,11
    1d06:	00440793          	addi	a5,s0,4
    1d0a:	9961                	andi	a0,a0,-8
    1d0c:	40f50733          	sub	a4,a0,a5
    1d10:	df5d                	beqz	a4,1cce <_malloc_r+0x6a>
    1d12:	943a                	add	s0,s0,a4
    1d14:	8f89                	sub	a5,a5,a0
    1d16:	c01c                	sw	a5,0(s0)
    1d18:	bf5d                	j	1cce <_malloc_r+0x6a>
    1d1a:	c35c                	sw	a5,4(a4)
    1d1c:	b7c5                	j	1cfc <_malloc_r+0x98>
    1d1e:	8722                	mv	a4,s0
    1d20:	4040                	lw	s0,4(s0)
    1d22:	bf85                	j	1c92 <_malloc_r+0x2e>
    1d24:	00350413          	addi	s0,a0,3
    1d28:	9871                	andi	s0,s0,-4
    1d2a:	fc8502e3          	beq	a0,s0,1cee <_malloc_r+0x8a>
    1d2e:	40a405b3          	sub	a1,s0,a0
    1d32:	854a                	mv	a0,s2
    1d34:	27a1                	jal	247c <_sbrk_r>
    1d36:	fb351ce3          	bne	a0,s3,1cee <_malloc_r+0x8a>
    1d3a:	bfb5                	j	1cb6 <_malloc_r+0x52>

00001d3c <__sfputc_r>:
__sfputc_r():
    1d3c:	461c                	lw	a5,8(a2)
    1d3e:	17fd                	addi	a5,a5,-1
    1d40:	c61c                	sw	a5,8(a2)
    1d42:	0007da63          	bgez	a5,1d56 <__sfputc_r+0x1a>
    1d46:	4e18                	lw	a4,24(a2)
    1d48:	00e7c563          	blt	a5,a4,1d52 <__sfputc_r+0x16>
    1d4c:	47a9                	li	a5,10
    1d4e:	00f59463          	bne	a1,a5,1d56 <__sfputc_r+0x1a>
    1d52:	fd2ff06f          	j	1524 <__swbuf_r>
    1d56:	421c                	lw	a5,0(a2)
    1d58:	852e                	mv	a0,a1
    1d5a:	00178713          	addi	a4,a5,1
    1d5e:	c218                	sw	a4,0(a2)
    1d60:	00b78023          	sb	a1,0(a5)
    1d64:	8082                	ret

00001d66 <__sfputs_r>:
__sfputs_r():
    1d66:	1101                	addi	sp,sp,-32
    1d68:	cc22                	sw	s0,24(sp)
    1d6a:	ca26                	sw	s1,20(sp)
    1d6c:	c84a                	sw	s2,16(sp)
    1d6e:	c64e                	sw	s3,12(sp)
    1d70:	c452                	sw	s4,8(sp)
    1d72:	ce06                	sw	ra,28(sp)
    1d74:	892a                	mv	s2,a0
    1d76:	89ae                	mv	s3,a1
    1d78:	8432                	mv	s0,a2
    1d7a:	00d604b3          	add	s1,a2,a3
    1d7e:	5a7d                	li	s4,-1
    1d80:	00941463          	bne	s0,s1,1d88 <__sfputs_r+0x22>
    1d84:	4501                	li	a0,0
    1d86:	a809                	j	1d98 <__sfputs_r+0x32>
    1d88:	00044583          	lbu	a1,0(s0)
    1d8c:	864e                	mv	a2,s3
    1d8e:	854a                	mv	a0,s2
    1d90:	3775                	jal	1d3c <__sfputc_r>
    1d92:	0405                	addi	s0,s0,1
    1d94:	ff4516e3          	bne	a0,s4,1d80 <__sfputs_r+0x1a>
    1d98:	40f2                	lw	ra,28(sp)
    1d9a:	4462                	lw	s0,24(sp)
    1d9c:	44d2                	lw	s1,20(sp)
    1d9e:	4942                	lw	s2,16(sp)
    1da0:	49b2                	lw	s3,12(sp)
    1da2:	4a22                	lw	s4,8(sp)
    1da4:	6105                	addi	sp,sp,32
    1da6:	8082                	ret

00001da8 <_vfiprintf_r>:
_vfiprintf_r():
    1da8:	7135                	addi	sp,sp,-160
    1daa:	cd22                	sw	s0,152(sp)
    1dac:	cb26                	sw	s1,148(sp)
    1dae:	c94a                	sw	s2,144(sp)
    1db0:	c74e                	sw	s3,140(sp)
    1db2:	cf06                	sw	ra,156(sp)
    1db4:	c552                	sw	s4,136(sp)
    1db6:	c356                	sw	s5,132(sp)
    1db8:	c15a                	sw	s6,128(sp)
    1dba:	dede                	sw	s7,124(sp)
    1dbc:	dce2                	sw	s8,120(sp)
    1dbe:	dae6                	sw	s9,116(sp)
    1dc0:	89aa                	mv	s3,a0
    1dc2:	84ae                	mv	s1,a1
    1dc4:	8932                	mv	s2,a2
    1dc6:	8436                	mv	s0,a3
    1dc8:	c501                	beqz	a0,1dd0 <_vfiprintf_r+0x28>
    1dca:	4d1c                	lw	a5,24(a0)
    1dcc:	e391                	bnez	a5,1dd0 <_vfiprintf_r+0x28>
    1dce:	3641                	jal	194e <__sinit>
    1dd0:	00001797          	auipc	a5,0x1
    1dd4:	af878793          	addi	a5,a5,-1288 # 28c8 <__sf_fake_stdin>
    1dd8:	0cf49c63          	bne	s1,a5,1eb0 <_vfiprintf_r+0x108>
    1ddc:	0049a483          	lw	s1,4(s3)
    1de0:	00c4d783          	lhu	a5,12(s1)
    1de4:	8ba1                	andi	a5,a5,8
    1de6:	c7fd                	beqz	a5,1ed4 <_vfiprintf_r+0x12c>
    1de8:	489c                	lw	a5,16(s1)
    1dea:	c7ed                	beqz	a5,1ed4 <_vfiprintf_r+0x12c>
    1dec:	02000793          	li	a5,32
    1df0:	02f104a3          	sb	a5,41(sp)
    1df4:	03000793          	li	a5,48
    1df8:	d202                	sw	zero,36(sp)
    1dfa:	02f10523          	sb	a5,42(sp)
    1dfe:	c622                	sw	s0,12(sp)
    1e00:	02500b93          	li	s7,37
    1e04:	00001a97          	auipc	s5,0x1
    1e08:	b04a8a93          	addi	s5,s5,-1276 # 2908 <__sf_fake_stdout+0x20>
    1e0c:	4c05                	li	s8,1
    1e0e:	4b29                	li	s6,10
    1e10:	844a                	mv	s0,s2
    1e12:	00044783          	lbu	a5,0(s0)
    1e16:	c399                	beqz	a5,1e1c <_vfiprintf_r+0x74>
    1e18:	0f779163          	bne	a5,s7,1efa <_vfiprintf_r+0x152>
    1e1c:	41240cb3          	sub	s9,s0,s2
    1e20:	000c8d63          	beqz	s9,1e3a <_vfiprintf_r+0x92>
    1e24:	86e6                	mv	a3,s9
    1e26:	864a                	mv	a2,s2
    1e28:	85a6                	mv	a1,s1
    1e2a:	854e                	mv	a0,s3
    1e2c:	3f2d                	jal	1d66 <__sfputs_r>
    1e2e:	57fd                	li	a5,-1
    1e30:	1ef50763          	beq	a0,a5,201e <_vfiprintf_r+0x276>
    1e34:	5692                	lw	a3,36(sp)
    1e36:	96e6                	add	a3,a3,s9
    1e38:	d236                	sw	a3,36(sp)
    1e3a:	00044783          	lbu	a5,0(s0)
    1e3e:	1e078063          	beqz	a5,201e <_vfiprintf_r+0x276>
    1e42:	57fd                	li	a5,-1
    1e44:	00140913          	addi	s2,s0,1
    1e48:	c802                	sw	zero,16(sp)
    1e4a:	ce02                	sw	zero,28(sp)
    1e4c:	ca3e                	sw	a5,20(sp)
    1e4e:	cc02                	sw	zero,24(sp)
    1e50:	040109a3          	sb	zero,83(sp)
    1e54:	d482                	sw	zero,104(sp)
    1e56:	00094583          	lbu	a1,0(s2)
    1e5a:	4615                	li	a2,5
    1e5c:	8556                	mv	a0,s5
    1e5e:	7d4000ef          	jal	ra,2632 <memchr>
    1e62:	00190413          	addi	s0,s2,1
    1e66:	47c2                	lw	a5,16(sp)
    1e68:	e959                	bnez	a0,1efe <_vfiprintf_r+0x156>
    1e6a:	0107f713          	andi	a4,a5,16
    1e6e:	c709                	beqz	a4,1e78 <_vfiprintf_r+0xd0>
    1e70:	02000713          	li	a4,32
    1e74:	04e109a3          	sb	a4,83(sp)
    1e78:	0087f713          	andi	a4,a5,8
    1e7c:	c709                	beqz	a4,1e86 <_vfiprintf_r+0xde>
    1e7e:	02b00713          	li	a4,43
    1e82:	04e109a3          	sb	a4,83(sp)
    1e86:	00094683          	lbu	a3,0(s2)
    1e8a:	02a00713          	li	a4,42
    1e8e:	08e68063          	beq	a3,a4,1f0e <_vfiprintf_r+0x166>
    1e92:	47f2                	lw	a5,28(sp)
    1e94:	844a                	mv	s0,s2
    1e96:	4681                	li	a3,0
    1e98:	4625                	li	a2,9
    1e9a:	00044703          	lbu	a4,0(s0)
    1e9e:	00140593          	addi	a1,s0,1
    1ea2:	fd070713          	addi	a4,a4,-48 # ffffdfd0 <_eusrstack+0xdfff5fd0>
    1ea6:	0ae67963          	bgeu	a2,a4,1f58 <_vfiprintf_r+0x1b0>
    1eaa:	cab5                	beqz	a3,1f1e <_vfiprintf_r+0x176>
    1eac:	ce3e                	sw	a5,28(sp)
    1eae:	a885                	j	1f1e <_vfiprintf_r+0x176>
    1eb0:	00001797          	auipc	a5,0x1
    1eb4:	a3878793          	addi	a5,a5,-1480 # 28e8 <__sf_fake_stdout>
    1eb8:	00f49563          	bne	s1,a5,1ec2 <_vfiprintf_r+0x11a>
    1ebc:	0089a483          	lw	s1,8(s3)
    1ec0:	b705                	j	1de0 <_vfiprintf_r+0x38>
    1ec2:	00001797          	auipc	a5,0x1
    1ec6:	9e678793          	addi	a5,a5,-1562 # 28a8 <__sf_fake_stderr>
    1eca:	f0f49be3          	bne	s1,a5,1de0 <_vfiprintf_r+0x38>
    1ece:	00c9a483          	lw	s1,12(s3)
    1ed2:	b739                	j	1de0 <_vfiprintf_r+0x38>
    1ed4:	85a6                	mv	a1,s1
    1ed6:	854e                	mv	a0,s3
    1ed8:	f0cff0ef          	jal	ra,15e4 <__swsetup_r>
    1edc:	d901                	beqz	a0,1dec <_vfiprintf_r+0x44>
    1ede:	557d                	li	a0,-1
    1ee0:	40fa                	lw	ra,156(sp)
    1ee2:	446a                	lw	s0,152(sp)
    1ee4:	44da                	lw	s1,148(sp)
    1ee6:	494a                	lw	s2,144(sp)
    1ee8:	49ba                	lw	s3,140(sp)
    1eea:	4a2a                	lw	s4,136(sp)
    1eec:	4a9a                	lw	s5,132(sp)
    1eee:	4b0a                	lw	s6,128(sp)
    1ef0:	5bf6                	lw	s7,124(sp)
    1ef2:	5c66                	lw	s8,120(sp)
    1ef4:	5cd6                	lw	s9,116(sp)
    1ef6:	610d                	addi	sp,sp,160
    1ef8:	8082                	ret
    1efa:	0405                	addi	s0,s0,1
    1efc:	bf19                	j	1e12 <_vfiprintf_r+0x6a>
    1efe:	41550533          	sub	a0,a0,s5
    1f02:	00ac1533          	sll	a0,s8,a0
    1f06:	8fc9                	or	a5,a5,a0
    1f08:	c83e                	sw	a5,16(sp)
    1f0a:	8922                	mv	s2,s0
    1f0c:	b7a9                	j	1e56 <_vfiprintf_r+0xae>
    1f0e:	4732                	lw	a4,12(sp)
    1f10:	00470693          	addi	a3,a4,4
    1f14:	4318                	lw	a4,0(a4)
    1f16:	c636                	sw	a3,12(sp)
    1f18:	02074963          	bltz	a4,1f4a <_vfiprintf_r+0x1a2>
    1f1c:	ce3a                	sw	a4,28(sp)
    1f1e:	00044703          	lbu	a4,0(s0)
    1f22:	02e00793          	li	a5,46
    1f26:	04f71f63          	bne	a4,a5,1f84 <_vfiprintf_r+0x1dc>
    1f2a:	00144703          	lbu	a4,1(s0)
    1f2e:	02a00793          	li	a5,42
    1f32:	02f71b63          	bne	a4,a5,1f68 <_vfiprintf_r+0x1c0>
    1f36:	47b2                	lw	a5,12(sp)
    1f38:	0409                	addi	s0,s0,2
    1f3a:	00478713          	addi	a4,a5,4
    1f3e:	439c                	lw	a5,0(a5)
    1f40:	c63a                	sw	a4,12(sp)
    1f42:	0207c163          	bltz	a5,1f64 <_vfiprintf_r+0x1bc>
    1f46:	ca3e                	sw	a5,20(sp)
    1f48:	a835                	j	1f84 <_vfiprintf_r+0x1dc>
    1f4a:	40e00733          	neg	a4,a4
    1f4e:	0027e793          	ori	a5,a5,2
    1f52:	ce3a                	sw	a4,28(sp)
    1f54:	c83e                	sw	a5,16(sp)
    1f56:	b7e1                	j	1f1e <_vfiprintf_r+0x176>
    1f58:	036787b3          	mul	a5,a5,s6
    1f5c:	4685                	li	a3,1
    1f5e:	842e                	mv	s0,a1
    1f60:	97ba                	add	a5,a5,a4
    1f62:	bf25                	j	1e9a <_vfiprintf_r+0xf2>
    1f64:	57fd                	li	a5,-1
    1f66:	b7c5                	j	1f46 <_vfiprintf_r+0x19e>
    1f68:	0405                	addi	s0,s0,1
    1f6a:	ca02                	sw	zero,20(sp)
    1f6c:	4681                	li	a3,0
    1f6e:	4781                	li	a5,0
    1f70:	4625                	li	a2,9
    1f72:	00044703          	lbu	a4,0(s0)
    1f76:	00140593          	addi	a1,s0,1
    1f7a:	fd070713          	addi	a4,a4,-48
    1f7e:	06e67663          	bgeu	a2,a4,1fea <_vfiprintf_r+0x242>
    1f82:	f2f1                	bnez	a3,1f46 <_vfiprintf_r+0x19e>
    1f84:	00044583          	lbu	a1,0(s0)
    1f88:	460d                	li	a2,3
    1f8a:	00001517          	auipc	a0,0x1
    1f8e:	98650513          	addi	a0,a0,-1658 # 2910 <__sf_fake_stdout+0x28>
    1f92:	2545                	jal	2632 <memchr>
    1f94:	cd11                	beqz	a0,1fb0 <_vfiprintf_r+0x208>
    1f96:	00001797          	auipc	a5,0x1
    1f9a:	97a78793          	addi	a5,a5,-1670 # 2910 <__sf_fake_stdout+0x28>
    1f9e:	8d1d                	sub	a0,a0,a5
    1fa0:	04000793          	li	a5,64
    1fa4:	00a797b3          	sll	a5,a5,a0
    1fa8:	4542                	lw	a0,16(sp)
    1faa:	0405                	addi	s0,s0,1
    1fac:	8d5d                	or	a0,a0,a5
    1fae:	c82a                	sw	a0,16(sp)
    1fb0:	00044583          	lbu	a1,0(s0)
    1fb4:	4619                	li	a2,6
    1fb6:	00001517          	auipc	a0,0x1
    1fba:	95e50513          	addi	a0,a0,-1698 # 2914 <__sf_fake_stdout+0x2c>
    1fbe:	00140913          	addi	s2,s0,1
    1fc2:	02b10423          	sb	a1,40(sp)
    1fc6:	25b5                	jal	2632 <memchr>
    1fc8:	c13d                	beqz	a0,202e <_vfiprintf_r+0x286>
    1fca:	ffffe797          	auipc	a5,0xffffe
    1fce:	03678793          	addi	a5,a5,54 # 0 <_sinit>
    1fd2:	e795                	bnez	a5,1ffe <_vfiprintf_r+0x256>
    1fd4:	4742                	lw	a4,16(sp)
    1fd6:	47b2                	lw	a5,12(sp)
    1fd8:	10077713          	andi	a4,a4,256
    1fdc:	cf09                	beqz	a4,1ff6 <_vfiprintf_r+0x24e>
    1fde:	0791                	addi	a5,a5,4
    1fe0:	c63e                	sw	a5,12(sp)
    1fe2:	5792                	lw	a5,36(sp)
    1fe4:	97d2                	add	a5,a5,s4
    1fe6:	d23e                	sw	a5,36(sp)
    1fe8:	b525                	j	1e10 <_vfiprintf_r+0x68>
    1fea:	036787b3          	mul	a5,a5,s6
    1fee:	4685                	li	a3,1
    1ff0:	842e                	mv	s0,a1
    1ff2:	97ba                	add	a5,a5,a4
    1ff4:	bfbd                	j	1f72 <_vfiprintf_r+0x1ca>
    1ff6:	079d                	addi	a5,a5,7
    1ff8:	9be1                	andi	a5,a5,-8
    1ffa:	07a1                	addi	a5,a5,8
    1ffc:	b7d5                	j	1fe0 <_vfiprintf_r+0x238>
    1ffe:	0078                	addi	a4,sp,12
    2000:	00000697          	auipc	a3,0x0
    2004:	d6668693          	addi	a3,a3,-666 # 1d66 <__sfputs_r>
    2008:	8626                	mv	a2,s1
    200a:	080c                	addi	a1,sp,16
    200c:	854e                	mv	a0,s3
    200e:	00000097          	auipc	ra,0x0
    2012:	000000e7          	jalr	zero # 0 <_sinit>
    2016:	57fd                	li	a5,-1
    2018:	8a2a                	mv	s4,a0
    201a:	fcf514e3          	bne	a0,a5,1fe2 <_vfiprintf_r+0x23a>
    201e:	00c4d783          	lhu	a5,12(s1)
    2022:	0407f793          	andi	a5,a5,64
    2026:	ea079ce3          	bnez	a5,1ede <_vfiprintf_r+0x136>
    202a:	5512                	lw	a0,36(sp)
    202c:	bd55                	j	1ee0 <_vfiprintf_r+0x138>
    202e:	0078                	addi	a4,sp,12
    2030:	00000697          	auipc	a3,0x0
    2034:	d3668693          	addi	a3,a3,-714 # 1d66 <__sfputs_r>
    2038:	8626                	mv	a2,s1
    203a:	080c                	addi	a1,sp,16
    203c:	854e                	mv	a0,s3
    203e:	2a01                	jal	214e <_printf_i>
    2040:	bfd9                	j	2016 <_vfiprintf_r+0x26e>

00002042 <_printf_common>:
_printf_common():
    2042:	7179                	addi	sp,sp,-48
    2044:	ca56                	sw	s5,20(sp)
    2046:	499c                	lw	a5,16(a1)
    2048:	8aba                	mv	s5,a4
    204a:	4598                	lw	a4,8(a1)
    204c:	d422                	sw	s0,40(sp)
    204e:	d226                	sw	s1,36(sp)
    2050:	ce4e                	sw	s3,28(sp)
    2052:	cc52                	sw	s4,24(sp)
    2054:	d606                	sw	ra,44(sp)
    2056:	d04a                	sw	s2,32(sp)
    2058:	c85a                	sw	s6,16(sp)
    205a:	c65e                	sw	s7,12(sp)
    205c:	89aa                	mv	s3,a0
    205e:	842e                	mv	s0,a1
    2060:	84b2                	mv	s1,a2
    2062:	8a36                	mv	s4,a3
    2064:	00e7d363          	bge	a5,a4,206a <_printf_common+0x28>
    2068:	87ba                	mv	a5,a4
    206a:	c09c                	sw	a5,0(s1)
    206c:	04344703          	lbu	a4,67(s0)
    2070:	c319                	beqz	a4,2076 <_printf_common+0x34>
    2072:	0785                	addi	a5,a5,1
    2074:	c09c                	sw	a5,0(s1)
    2076:	401c                	lw	a5,0(s0)
    2078:	0207f793          	andi	a5,a5,32
    207c:	c781                	beqz	a5,2084 <_printf_common+0x42>
    207e:	409c                	lw	a5,0(s1)
    2080:	0789                	addi	a5,a5,2
    2082:	c09c                	sw	a5,0(s1)
    2084:	00042903          	lw	s2,0(s0)
    2088:	00697913          	andi	s2,s2,6
    208c:	00091a63          	bnez	s2,20a0 <_printf_common+0x5e>
    2090:	01940b13          	addi	s6,s0,25
    2094:	5bfd                	li	s7,-1
    2096:	445c                	lw	a5,12(s0)
    2098:	4098                	lw	a4,0(s1)
    209a:	8f99                	sub	a5,a5,a4
    209c:	04f94c63          	blt	s2,a5,20f4 <_printf_common+0xb2>
    20a0:	401c                	lw	a5,0(s0)
    20a2:	04344683          	lbu	a3,67(s0)
    20a6:	0207f793          	andi	a5,a5,32
    20aa:	00d036b3          	snez	a3,a3
    20ae:	eba5                	bnez	a5,211e <_printf_common+0xdc>
    20b0:	04340613          	addi	a2,s0,67
    20b4:	85d2                	mv	a1,s4
    20b6:	854e                	mv	a0,s3
    20b8:	9a82                	jalr	s5
    20ba:	57fd                	li	a5,-1
    20bc:	04f50363          	beq	a0,a5,2102 <_printf_common+0xc0>
    20c0:	401c                	lw	a5,0(s0)
    20c2:	4611                	li	a2,4
    20c4:	4098                	lw	a4,0(s1)
    20c6:	8b99                	andi	a5,a5,6
    20c8:	4454                	lw	a3,12(s0)
    20ca:	4481                	li	s1,0
    20cc:	00c79763          	bne	a5,a2,20da <_printf_common+0x98>
    20d0:	40e684b3          	sub	s1,a3,a4
    20d4:	0004d363          	bgez	s1,20da <_printf_common+0x98>
    20d8:	4481                	li	s1,0
    20da:	441c                	lw	a5,8(s0)
    20dc:	4818                	lw	a4,16(s0)
    20de:	00f75463          	bge	a4,a5,20e6 <_printf_common+0xa4>
    20e2:	8f99                	sub	a5,a5,a4
    20e4:	94be                	add	s1,s1,a5
    20e6:	4901                	li	s2,0
    20e8:	0469                	addi	s0,s0,26
    20ea:	5b7d                	li	s6,-1
    20ec:	05249863          	bne	s1,s2,213c <_printf_common+0xfa>
    20f0:	4501                	li	a0,0
    20f2:	a809                	j	2104 <_printf_common+0xc2>
    20f4:	4685                	li	a3,1
    20f6:	865a                	mv	a2,s6
    20f8:	85d2                	mv	a1,s4
    20fa:	854e                	mv	a0,s3
    20fc:	9a82                	jalr	s5
    20fe:	01751e63          	bne	a0,s7,211a <_printf_common+0xd8>
    2102:	557d                	li	a0,-1
    2104:	50b2                	lw	ra,44(sp)
    2106:	5422                	lw	s0,40(sp)
    2108:	5492                	lw	s1,36(sp)
    210a:	5902                	lw	s2,32(sp)
    210c:	49f2                	lw	s3,28(sp)
    210e:	4a62                	lw	s4,24(sp)
    2110:	4ad2                	lw	s5,20(sp)
    2112:	4b42                	lw	s6,16(sp)
    2114:	4bb2                	lw	s7,12(sp)
    2116:	6145                	addi	sp,sp,48
    2118:	8082                	ret
    211a:	0905                	addi	s2,s2,1
    211c:	bfad                	j	2096 <_printf_common+0x54>
    211e:	00d40733          	add	a4,s0,a3
    2122:	03000613          	li	a2,48
    2126:	04c701a3          	sb	a2,67(a4)
    212a:	04544703          	lbu	a4,69(s0)
    212e:	00168793          	addi	a5,a3,1
    2132:	97a2                	add	a5,a5,s0
    2134:	0689                	addi	a3,a3,2
    2136:	04e781a3          	sb	a4,67(a5)
    213a:	bf9d                	j	20b0 <_printf_common+0x6e>
    213c:	4685                	li	a3,1
    213e:	8622                	mv	a2,s0
    2140:	85d2                	mv	a1,s4
    2142:	854e                	mv	a0,s3
    2144:	9a82                	jalr	s5
    2146:	fb650ee3          	beq	a0,s6,2102 <_printf_common+0xc0>
    214a:	0905                	addi	s2,s2,1
    214c:	b745                	j	20ec <_printf_common+0xaa>

0000214e <_printf_i>:
_printf_i():
    214e:	7179                	addi	sp,sp,-48
    2150:	d422                	sw	s0,40(sp)
    2152:	d226                	sw	s1,36(sp)
    2154:	d04a                	sw	s2,32(sp)
    2156:	ce4e                	sw	s3,28(sp)
    2158:	d606                	sw	ra,44(sp)
    215a:	cc52                	sw	s4,24(sp)
    215c:	ca56                	sw	s5,20(sp)
    215e:	c85a                	sw	s6,16(sp)
    2160:	89b6                	mv	s3,a3
    2162:	0185c683          	lbu	a3,24(a1)
    2166:	06900793          	li	a5,105
    216a:	8932                	mv	s2,a2
    216c:	84aa                	mv	s1,a0
    216e:	842e                	mv	s0,a1
    2170:	04358613          	addi	a2,a1,67
    2174:	02f68d63          	beq	a3,a5,21ae <_printf_i+0x60>
    2178:	06d7e263          	bltu	a5,a3,21dc <_printf_i+0x8e>
    217c:	05800793          	li	a5,88
    2180:	18f68763          	beq	a3,a5,230e <_printf_i+0x1c0>
    2184:	00d7ed63          	bltu	a5,a3,219e <_printf_i+0x50>
    2188:	22068063          	beqz	a3,23a8 <_printf_i+0x25a>
    218c:	04300793          	li	a5,67
    2190:	0af68e63          	beq	a3,a5,224c <_printf_i+0xfe>
    2194:	04240a93          	addi	s5,s0,66
    2198:	04d40123          	sb	a3,66(s0)
    219c:	a0c9                	j	225e <_printf_i+0x110>
    219e:	06300793          	li	a5,99
    21a2:	0af68563          	beq	a3,a5,224c <_printf_i+0xfe>
    21a6:	06400793          	li	a5,100
    21aa:	fef695e3          	bne	a3,a5,2194 <_printf_i+0x46>
    21ae:	401c                	lw	a5,0(s0)
    21b0:	4308                	lw	a0,0(a4)
    21b2:	0807f693          	andi	a3,a5,128
    21b6:	00450593          	addi	a1,a0,4
    21ba:	c6c5                	beqz	a3,2262 <_printf_i+0x114>
    21bc:	411c                	lw	a5,0(a0)
    21be:	c30c                	sw	a1,0(a4)
    21c0:	0007d863          	bgez	a5,21d0 <_printf_i+0x82>
    21c4:	02d00713          	li	a4,45
    21c8:	40f007b3          	neg	a5,a5
    21cc:	04e401a3          	sb	a4,67(s0)
    21d0:	00000697          	auipc	a3,0x0
    21d4:	74c68693          	addi	a3,a3,1868 # 291c <__sf_fake_stdout+0x34>
    21d8:	4729                	li	a4,10
    21da:	a86d                	j	2294 <_printf_i+0x146>
    21dc:	07000793          	li	a5,112
    21e0:	16f68363          	beq	a3,a5,2346 <_printf_i+0x1f8>
    21e4:	02d7e563          	bltu	a5,a3,220e <_printf_i+0xc0>
    21e8:	06e00793          	li	a5,110
    21ec:	18f68a63          	beq	a3,a5,2380 <_printf_i+0x232>
    21f0:	06f00793          	li	a5,111
    21f4:	faf690e3          	bne	a3,a5,2194 <_printf_i+0x46>
    21f8:	400c                	lw	a1,0(s0)
    21fa:	431c                	lw	a5,0(a4)
    21fc:	0805f813          	andi	a6,a1,128
    2200:	00478513          	addi	a0,a5,4
    2204:	06080763          	beqz	a6,2272 <_printf_i+0x124>
    2208:	c308                	sw	a0,0(a4)
    220a:	439c                	lw	a5,0(a5)
    220c:	a88d                	j	227e <_printf_i+0x130>
    220e:	07500793          	li	a5,117
    2212:	fef683e3          	beq	a3,a5,21f8 <_printf_i+0xaa>
    2216:	07800793          	li	a5,120
    221a:	12f68a63          	beq	a3,a5,234e <_printf_i+0x200>
    221e:	07300793          	li	a5,115
    2222:	f6f699e3          	bne	a3,a5,2194 <_printf_i+0x46>
    2226:	431c                	lw	a5,0(a4)
    2228:	41d0                	lw	a2,4(a1)
    222a:	4581                	li	a1,0
    222c:	00478693          	addi	a3,a5,4
    2230:	c314                	sw	a3,0(a4)
    2232:	0007aa83          	lw	s5,0(a5)
    2236:	8556                	mv	a0,s5
    2238:	2eed                	jal	2632 <memchr>
    223a:	c501                	beqz	a0,2242 <_printf_i+0xf4>
    223c:	41550533          	sub	a0,a0,s5
    2240:	c048                	sw	a0,4(s0)
    2242:	405c                	lw	a5,4(s0)
    2244:	c81c                	sw	a5,16(s0)
    2246:	040401a3          	sb	zero,67(s0)
    224a:	a871                	j	22e6 <_printf_i+0x198>
    224c:	431c                	lw	a5,0(a4)
    224e:	04240a93          	addi	s5,s0,66
    2252:	00478693          	addi	a3,a5,4
    2256:	439c                	lw	a5,0(a5)
    2258:	c314                	sw	a3,0(a4)
    225a:	04f40123          	sb	a5,66(s0)
    225e:	4785                	li	a5,1
    2260:	b7d5                	j	2244 <_printf_i+0xf6>
    2262:	0407f693          	andi	a3,a5,64
    2266:	411c                	lw	a5,0(a0)
    2268:	c30c                	sw	a1,0(a4)
    226a:	dab9                	beqz	a3,21c0 <_printf_i+0x72>
    226c:	07c2                	slli	a5,a5,0x10
    226e:	87c1                	srai	a5,a5,0x10
    2270:	bf81                	j	21c0 <_printf_i+0x72>
    2272:	0405f593          	andi	a1,a1,64
    2276:	c308                	sw	a0,0(a4)
    2278:	d9c9                	beqz	a1,220a <_printf_i+0xbc>
    227a:	0007d783          	lhu	a5,0(a5)
    227e:	06f00713          	li	a4,111
    2282:	0ee68763          	beq	a3,a4,2370 <_printf_i+0x222>
    2286:	00000697          	auipc	a3,0x0
    228a:	69668693          	addi	a3,a3,1686 # 291c <__sf_fake_stdout+0x34>
    228e:	4729                	li	a4,10
    2290:	040401a3          	sb	zero,67(s0)
    2294:	404c                	lw	a1,4(s0)
    2296:	c40c                	sw	a1,8(s0)
    2298:	0005c563          	bltz	a1,22a2 <_printf_i+0x154>
    229c:	4008                	lw	a0,0(s0)
    229e:	996d                	andi	a0,a0,-5
    22a0:	c008                	sw	a0,0(s0)
    22a2:	e399                	bnez	a5,22a8 <_printf_i+0x15a>
    22a4:	8ab2                	mv	s5,a2
    22a6:	cd91                	beqz	a1,22c2 <_printf_i+0x174>
    22a8:	8ab2                	mv	s5,a2
    22aa:	02e7f5b3          	remu	a1,a5,a4
    22ae:	1afd                	addi	s5,s5,-1
    22b0:	95b6                	add	a1,a1,a3
    22b2:	0005c583          	lbu	a1,0(a1)
    22b6:	00ba8023          	sb	a1,0(s5)
    22ba:	02e7d5b3          	divu	a1,a5,a4
    22be:	0ae7ff63          	bgeu	a5,a4,237c <_printf_i+0x22e>
    22c2:	47a1                	li	a5,8
    22c4:	00f71e63          	bne	a4,a5,22e0 <_printf_i+0x192>
    22c8:	401c                	lw	a5,0(s0)
    22ca:	8b85                	andi	a5,a5,1
    22cc:	cb91                	beqz	a5,22e0 <_printf_i+0x192>
    22ce:	4058                	lw	a4,4(s0)
    22d0:	481c                	lw	a5,16(s0)
    22d2:	00e7c763          	blt	a5,a4,22e0 <_printf_i+0x192>
    22d6:	03000793          	li	a5,48
    22da:	fefa8fa3          	sb	a5,-1(s5)
    22de:	1afd                	addi	s5,s5,-1
    22e0:	41560633          	sub	a2,a2,s5
    22e4:	c810                	sw	a2,16(s0)
    22e6:	874e                	mv	a4,s3
    22e8:	86ca                	mv	a3,s2
    22ea:	0070                	addi	a2,sp,12
    22ec:	85a2                	mv	a1,s0
    22ee:	8526                	mv	a0,s1
    22f0:	3b89                	jal	2042 <_printf_common>
    22f2:	5a7d                	li	s4,-1
    22f4:	0b451e63          	bne	a0,s4,23b0 <_printf_i+0x262>
    22f8:	557d                	li	a0,-1
    22fa:	50b2                	lw	ra,44(sp)
    22fc:	5422                	lw	s0,40(sp)
    22fe:	5492                	lw	s1,36(sp)
    2300:	5902                	lw	s2,32(sp)
    2302:	49f2                	lw	s3,28(sp)
    2304:	4a62                	lw	s4,24(sp)
    2306:	4ad2                	lw	s5,20(sp)
    2308:	4b42                	lw	s6,16(sp)
    230a:	6145                	addi	sp,sp,48
    230c:	8082                	ret
    230e:	04d582a3          	sb	a3,69(a1)
    2312:	00000697          	auipc	a3,0x0
    2316:	60a68693          	addi	a3,a3,1546 # 291c <__sf_fake_stdout+0x34>
    231a:	400c                	lw	a1,0(s0)
    231c:	4308                	lw	a0,0(a4)
    231e:	0805f813          	andi	a6,a1,128
    2322:	411c                	lw	a5,0(a0)
    2324:	0511                	addi	a0,a0,4
    2326:	02080d63          	beqz	a6,2360 <_printf_i+0x212>
    232a:	c308                	sw	a0,0(a4)
    232c:	0015f713          	andi	a4,a1,1
    2330:	c701                	beqz	a4,2338 <_printf_i+0x1ea>
    2332:	0205e593          	ori	a1,a1,32
    2336:	c00c                	sw	a1,0(s0)
    2338:	4741                	li	a4,16
    233a:	fbb9                	bnez	a5,2290 <_printf_i+0x142>
    233c:	400c                	lw	a1,0(s0)
    233e:	fdf5f593          	andi	a1,a1,-33
    2342:	c00c                	sw	a1,0(s0)
    2344:	b7b1                	j	2290 <_printf_i+0x142>
    2346:	419c                	lw	a5,0(a1)
    2348:	0207e793          	ori	a5,a5,32
    234c:	c19c                	sw	a5,0(a1)
    234e:	07800793          	li	a5,120
    2352:	04f402a3          	sb	a5,69(s0)
    2356:	00000697          	auipc	a3,0x0
    235a:	5da68693          	addi	a3,a3,1498 # 2930 <__sf_fake_stdout+0x48>
    235e:	bf75                	j	231a <_printf_i+0x1cc>
    2360:	0405f813          	andi	a6,a1,64
    2364:	c308                	sw	a0,0(a4)
    2366:	fc0803e3          	beqz	a6,232c <_printf_i+0x1de>
    236a:	07c2                	slli	a5,a5,0x10
    236c:	83c1                	srli	a5,a5,0x10
    236e:	bf7d                	j	232c <_printf_i+0x1de>
    2370:	00000697          	auipc	a3,0x0
    2374:	5ac68693          	addi	a3,a3,1452 # 291c <__sf_fake_stdout+0x34>
    2378:	4721                	li	a4,8
    237a:	bf19                	j	2290 <_printf_i+0x142>
    237c:	87ae                	mv	a5,a1
    237e:	b735                	j	22aa <_printf_i+0x15c>
    2380:	4194                	lw	a3,0(a1)
    2382:	431c                	lw	a5,0(a4)
    2384:	49cc                	lw	a1,20(a1)
    2386:	0806f813          	andi	a6,a3,128
    238a:	00478513          	addi	a0,a5,4
    238e:	00080663          	beqz	a6,239a <_printf_i+0x24c>
    2392:	c308                	sw	a0,0(a4)
    2394:	439c                	lw	a5,0(a5)
    2396:	c38c                	sw	a1,0(a5)
    2398:	a801                	j	23a8 <_printf_i+0x25a>
    239a:	c308                	sw	a0,0(a4)
    239c:	0406f693          	andi	a3,a3,64
    23a0:	439c                	lw	a5,0(a5)
    23a2:	daf5                	beqz	a3,2396 <_printf_i+0x248>
    23a4:	00b79023          	sh	a1,0(a5)
    23a8:	00042823          	sw	zero,16(s0)
    23ac:	8ab2                	mv	s5,a2
    23ae:	bf25                	j	22e6 <_printf_i+0x198>
    23b0:	4814                	lw	a3,16(s0)
    23b2:	8656                	mv	a2,s5
    23b4:	85ca                	mv	a1,s2
    23b6:	8526                	mv	a0,s1
    23b8:	9982                	jalr	s3
    23ba:	f3450fe3          	beq	a0,s4,22f8 <_printf_i+0x1aa>
    23be:	401c                	lw	a5,0(s0)
    23c0:	8b89                	andi	a5,a5,2
    23c2:	e78d                	bnez	a5,23ec <_printf_i+0x29e>
    23c4:	47b2                	lw	a5,12(sp)
    23c6:	4448                	lw	a0,12(s0)
    23c8:	f2f559e3          	bge	a0,a5,22fa <_printf_i+0x1ac>
    23cc:	853e                	mv	a0,a5
    23ce:	b735                	j	22fa <_printf_i+0x1ac>
    23d0:	4685                	li	a3,1
    23d2:	8656                	mv	a2,s5
    23d4:	85ca                	mv	a1,s2
    23d6:	8526                	mv	a0,s1
    23d8:	9982                	jalr	s3
    23da:	f1650fe3          	beq	a0,s6,22f8 <_printf_i+0x1aa>
    23de:	0a05                	addi	s4,s4,1
    23e0:	445c                	lw	a5,12(s0)
    23e2:	4732                	lw	a4,12(sp)
    23e4:	8f99                	sub	a5,a5,a4
    23e6:	fefa45e3          	blt	s4,a5,23d0 <_printf_i+0x282>
    23ea:	bfe9                	j	23c4 <_printf_i+0x276>
    23ec:	4a01                	li	s4,0
    23ee:	01940a93          	addi	s5,s0,25
    23f2:	5b7d                	li	s6,-1
    23f4:	b7f5                	j	23e0 <_printf_i+0x292>

000023f6 <_putc_r>:
_putc_r():
    23f6:	1101                	addi	sp,sp,-32
    23f8:	cc22                	sw	s0,24(sp)
    23fa:	ce06                	sw	ra,28(sp)
    23fc:	842a                	mv	s0,a0
    23fe:	c909                	beqz	a0,2410 <_putc_r+0x1a>
    2400:	4d1c                	lw	a5,24(a0)
    2402:	e799                	bnez	a5,2410 <_putc_r+0x1a>
    2404:	c632                	sw	a2,12(sp)
    2406:	c42e                	sw	a1,8(sp)
    2408:	d46ff0ef          	jal	ra,194e <__sinit>
    240c:	4632                	lw	a2,12(sp)
    240e:	45a2                	lw	a1,8(sp)
    2410:	00000797          	auipc	a5,0x0
    2414:	4b878793          	addi	a5,a5,1208 # 28c8 <__sf_fake_stdin>
    2418:	02f61663          	bne	a2,a5,2444 <_putc_r+0x4e>
    241c:	4050                	lw	a2,4(s0)
    241e:	461c                	lw	a5,8(a2)
    2420:	17fd                	addi	a5,a5,-1
    2422:	c61c                	sw	a5,8(a2)
    2424:	0407d063          	bgez	a5,2464 <_putc_r+0x6e>
    2428:	4e18                	lw	a4,24(a2)
    242a:	00e7c763          	blt	a5,a4,2438 <_putc_r+0x42>
    242e:	0ff5f793          	andi	a5,a1,255
    2432:	4729                	li	a4,10
    2434:	02e79863          	bne	a5,a4,2464 <_putc_r+0x6e>
    2438:	8522                	mv	a0,s0
    243a:	4462                	lw	s0,24(sp)
    243c:	40f2                	lw	ra,28(sp)
    243e:	6105                	addi	sp,sp,32
    2440:	8e4ff06f          	j	1524 <__swbuf_r>
    2444:	00000797          	auipc	a5,0x0
    2448:	4a478793          	addi	a5,a5,1188 # 28e8 <__sf_fake_stdout>
    244c:	00f61463          	bne	a2,a5,2454 <_putc_r+0x5e>
    2450:	4410                	lw	a2,8(s0)
    2452:	b7f1                	j	241e <_putc_r+0x28>
    2454:	00000797          	auipc	a5,0x0
    2458:	45478793          	addi	a5,a5,1108 # 28a8 <__sf_fake_stderr>
    245c:	fcf611e3          	bne	a2,a5,241e <_putc_r+0x28>
    2460:	4450                	lw	a2,12(s0)
    2462:	bf75                	j	241e <_putc_r+0x28>
    2464:	421c                	lw	a5,0(a2)
    2466:	0ff5f513          	andi	a0,a1,255
    246a:	00178713          	addi	a4,a5,1
    246e:	c218                	sw	a4,0(a2)
    2470:	00b78023          	sb	a1,0(a5)
    2474:	40f2                	lw	ra,28(sp)
    2476:	4462                	lw	s0,24(sp)
    2478:	6105                	addi	sp,sp,32
    247a:	8082                	ret

0000247c <_sbrk_r>:
_sbrk_r():
    247c:	1141                	addi	sp,sp,-16
    247e:	c422                	sw	s0,8(sp)
    2480:	842a                	mv	s0,a0
    2482:	852e                	mv	a0,a1
    2484:	9a01aa23          	sw	zero,-1612(gp) # 2000429c <errno>
    2488:	c606                	sw	ra,12(sp)
    248a:	243d                	jal	26b8 <_sbrk>
    248c:	57fd                	li	a5,-1
    248e:	00f51763          	bne	a0,a5,249c <_sbrk_r+0x20>
    2492:	9b418793          	addi	a5,gp,-1612 # 2000429c <errno>
    2496:	439c                	lw	a5,0(a5)
    2498:	c391                	beqz	a5,249c <_sbrk_r+0x20>
    249a:	c01c                	sw	a5,0(s0)
    249c:	40b2                	lw	ra,12(sp)
    249e:	4422                	lw	s0,8(sp)
    24a0:	0141                	addi	sp,sp,16
    24a2:	8082                	ret

000024a4 <__sread>:
__sread():
    24a4:	1141                	addi	sp,sp,-16
    24a6:	c422                	sw	s0,8(sp)
    24a8:	842e                	mv	s0,a1
    24aa:	00e59583          	lh	a1,14(a1)
    24ae:	c606                	sw	ra,12(sp)
    24b0:	2245                	jal	2650 <_read_r>
    24b2:	00054963          	bltz	a0,24c4 <__sread+0x20>
    24b6:	487c                	lw	a5,84(s0)
    24b8:	97aa                	add	a5,a5,a0
    24ba:	c87c                	sw	a5,84(s0)
    24bc:	40b2                	lw	ra,12(sp)
    24be:	4422                	lw	s0,8(sp)
    24c0:	0141                	addi	sp,sp,16
    24c2:	8082                	ret
    24c4:	00c45783          	lhu	a5,12(s0)
    24c8:	777d                	lui	a4,0xfffff
    24ca:	177d                	addi	a4,a4,-1
    24cc:	8ff9                	and	a5,a5,a4
    24ce:	00f41623          	sh	a5,12(s0)
    24d2:	b7ed                	j	24bc <__sread+0x18>

000024d4 <__swrite>:
__swrite():
    24d4:	00c5d783          	lhu	a5,12(a1)
    24d8:	1101                	addi	sp,sp,-32
    24da:	cc22                	sw	s0,24(sp)
    24dc:	ca26                	sw	s1,20(sp)
    24de:	c84a                	sw	s2,16(sp)
    24e0:	c64e                	sw	s3,12(sp)
    24e2:	ce06                	sw	ra,28(sp)
    24e4:	1007f793          	andi	a5,a5,256
    24e8:	84aa                	mv	s1,a0
    24ea:	842e                	mv	s0,a1
    24ec:	8932                	mv	s2,a2
    24ee:	89b6                	mv	s3,a3
    24f0:	c791                	beqz	a5,24fc <__swrite+0x28>
    24f2:	00e59583          	lh	a1,14(a1)
    24f6:	4689                	li	a3,2
    24f8:	4601                	li	a2,0
    24fa:	2231                	jal	2606 <_lseek_r>
    24fc:	00c45783          	lhu	a5,12(s0)
    2500:	777d                	lui	a4,0xfffff
    2502:	177d                	addi	a4,a4,-1
    2504:	8ff9                	and	a5,a5,a4
    2506:	00f41623          	sh	a5,12(s0)
    250a:	00e41583          	lh	a1,14(s0)
    250e:	4462                	lw	s0,24(sp)
    2510:	40f2                	lw	ra,28(sp)
    2512:	86ce                	mv	a3,s3
    2514:	864a                	mv	a2,s2
    2516:	49b2                	lw	s3,12(sp)
    2518:	4942                	lw	s2,16(sp)
    251a:	8526                	mv	a0,s1
    251c:	44d2                	lw	s1,20(sp)
    251e:	6105                	addi	sp,sp,32
    2520:	a83d                	j	255e <_write_r>

00002522 <__sseek>:
__sseek():
    2522:	1141                	addi	sp,sp,-16
    2524:	c422                	sw	s0,8(sp)
    2526:	842e                	mv	s0,a1
    2528:	00e59583          	lh	a1,14(a1)
    252c:	c606                	sw	ra,12(sp)
    252e:	28e1                	jal	2606 <_lseek_r>
    2530:	57fd                	li	a5,-1
    2532:	00c45703          	lhu	a4,12(s0)
    2536:	00f51b63          	bne	a0,a5,254c <__sseek+0x2a>
    253a:	77fd                	lui	a5,0xfffff
    253c:	17fd                	addi	a5,a5,-1
    253e:	8ff9                	and	a5,a5,a4
    2540:	00f41623          	sh	a5,12(s0)
    2544:	40b2                	lw	ra,12(sp)
    2546:	4422                	lw	s0,8(sp)
    2548:	0141                	addi	sp,sp,16
    254a:	8082                	ret
    254c:	6785                	lui	a5,0x1
    254e:	8fd9                	or	a5,a5,a4
    2550:	00f41623          	sh	a5,12(s0)
    2554:	c868                	sw	a0,84(s0)
    2556:	b7fd                	j	2544 <__sseek+0x22>

00002558 <__sclose>:
__sclose():
    2558:	00e59583          	lh	a1,14(a1)
    255c:	a805                	j	258c <_close_r>

0000255e <_write_r>:
_write_r():
    255e:	1141                	addi	sp,sp,-16
    2560:	c422                	sw	s0,8(sp)
    2562:	842a                	mv	s0,a0
    2564:	852e                	mv	a0,a1
    2566:	85b2                	mv	a1,a2
    2568:	8636                	mv	a2,a3
    256a:	9a01aa23          	sw	zero,-1612(gp) # 2000429c <errno>
    256e:	c606                	sw	ra,12(sp)
    2570:	d1bfe0ef          	jal	ra,128a <_write>
    2574:	57fd                	li	a5,-1
    2576:	00f51763          	bne	a0,a5,2584 <_write_r+0x26>
    257a:	9b418793          	addi	a5,gp,-1612 # 2000429c <errno>
    257e:	439c                	lw	a5,0(a5)
    2580:	c391                	beqz	a5,2584 <_write_r+0x26>
    2582:	c01c                	sw	a5,0(s0)
    2584:	40b2                	lw	ra,12(sp)
    2586:	4422                	lw	s0,8(sp)
    2588:	0141                	addi	sp,sp,16
    258a:	8082                	ret

0000258c <_close_r>:
_close_r():
    258c:	1141                	addi	sp,sp,-16
    258e:	c422                	sw	s0,8(sp)
    2590:	842a                	mv	s0,a0
    2592:	852e                	mv	a0,a1
    2594:	9a01aa23          	sw	zero,-1612(gp) # 2000429c <errno>
    2598:	c606                	sw	ra,12(sp)
    259a:	20cd                	jal	267c <_close>
    259c:	57fd                	li	a5,-1
    259e:	00f51763          	bne	a0,a5,25ac <_close_r+0x20>
    25a2:	9b418793          	addi	a5,gp,-1612 # 2000429c <errno>
    25a6:	439c                	lw	a5,0(a5)
    25a8:	c391                	beqz	a5,25ac <_close_r+0x20>
    25aa:	c01c                	sw	a5,0(s0)
    25ac:	40b2                	lw	ra,12(sp)
    25ae:	4422                	lw	s0,8(sp)
    25b0:	0141                	addi	sp,sp,16
    25b2:	8082                	ret

000025b4 <_fstat_r>:
_fstat_r():
    25b4:	1141                	addi	sp,sp,-16
    25b6:	c422                	sw	s0,8(sp)
    25b8:	842a                	mv	s0,a0
    25ba:	852e                	mv	a0,a1
    25bc:	85b2                	mv	a1,a2
    25be:	9a01aa23          	sw	zero,-1612(gp) # 2000429c <errno>
    25c2:	c606                	sw	ra,12(sp)
    25c4:	20d1                	jal	2688 <_fstat>
    25c6:	57fd                	li	a5,-1
    25c8:	00f51763          	bne	a0,a5,25d6 <_fstat_r+0x22>
    25cc:	9b418793          	addi	a5,gp,-1612 # 2000429c <errno>
    25d0:	439c                	lw	a5,0(a5)
    25d2:	c391                	beqz	a5,25d6 <_fstat_r+0x22>
    25d4:	c01c                	sw	a5,0(s0)
    25d6:	40b2                	lw	ra,12(sp)
    25d8:	4422                	lw	s0,8(sp)
    25da:	0141                	addi	sp,sp,16
    25dc:	8082                	ret

000025de <_isatty_r>:
_isatty_r():
    25de:	1141                	addi	sp,sp,-16
    25e0:	c422                	sw	s0,8(sp)
    25e2:	842a                	mv	s0,a0
    25e4:	852e                	mv	a0,a1
    25e6:	9a01aa23          	sw	zero,-1612(gp) # 2000429c <errno>
    25ea:	c606                	sw	ra,12(sp)
    25ec:	2065                	jal	2694 <_isatty>
    25ee:	57fd                	li	a5,-1
    25f0:	00f51763          	bne	a0,a5,25fe <_isatty_r+0x20>
    25f4:	9b418793          	addi	a5,gp,-1612 # 2000429c <errno>
    25f8:	439c                	lw	a5,0(a5)
    25fa:	c391                	beqz	a5,25fe <_isatty_r+0x20>
    25fc:	c01c                	sw	a5,0(s0)
    25fe:	40b2                	lw	ra,12(sp)
    2600:	4422                	lw	s0,8(sp)
    2602:	0141                	addi	sp,sp,16
    2604:	8082                	ret

00002606 <_lseek_r>:
_lseek_r():
    2606:	1141                	addi	sp,sp,-16
    2608:	c422                	sw	s0,8(sp)
    260a:	842a                	mv	s0,a0
    260c:	852e                	mv	a0,a1
    260e:	85b2                	mv	a1,a2
    2610:	8636                	mv	a2,a3
    2612:	9a01aa23          	sw	zero,-1612(gp) # 2000429c <errno>
    2616:	c606                	sw	ra,12(sp)
    2618:	2061                	jal	26a0 <_lseek>
    261a:	57fd                	li	a5,-1
    261c:	00f51763          	bne	a0,a5,262a <_lseek_r+0x24>
    2620:	9b418793          	addi	a5,gp,-1612 # 2000429c <errno>
    2624:	439c                	lw	a5,0(a5)
    2626:	c391                	beqz	a5,262a <_lseek_r+0x24>
    2628:	c01c                	sw	a5,0(s0)
    262a:	40b2                	lw	ra,12(sp)
    262c:	4422                	lw	s0,8(sp)
    262e:	0141                	addi	sp,sp,16
    2630:	8082                	ret

00002632 <memchr>:
memchr():
    2632:	0ff5f593          	andi	a1,a1,255
    2636:	962a                	add	a2,a2,a0
    2638:	00c51463          	bne	a0,a2,2640 <memchr+0xe>
    263c:	4501                	li	a0,0
    263e:	8082                	ret
    2640:	00054783          	lbu	a5,0(a0)
    2644:	feb78de3          	beq	a5,a1,263e <memchr+0xc>
    2648:	0505                	addi	a0,a0,1
    264a:	b7fd                	j	2638 <memchr+0x6>

0000264c <__malloc_lock>:
__malloc_lock():
    264c:	8082                	ret

0000264e <__malloc_unlock>:
__malloc_unlock():
    264e:	8082                	ret

00002650 <_read_r>:
_read_r():
    2650:	1141                	addi	sp,sp,-16
    2652:	c422                	sw	s0,8(sp)
    2654:	842a                	mv	s0,a0
    2656:	852e                	mv	a0,a1
    2658:	85b2                	mv	a1,a2
    265a:	8636                	mv	a2,a3
    265c:	9a01aa23          	sw	zero,-1612(gp) # 2000429c <errno>
    2660:	c606                	sw	ra,12(sp)
    2662:	20a9                	jal	26ac <_read>
    2664:	57fd                	li	a5,-1
    2666:	00f51763          	bne	a0,a5,2674 <_read_r+0x24>
    266a:	9b418793          	addi	a5,gp,-1612 # 2000429c <errno>
    266e:	439c                	lw	a5,0(a5)
    2670:	c391                	beqz	a5,2674 <_read_r+0x24>
    2672:	c01c                	sw	a5,0(s0)
    2674:	40b2                	lw	ra,12(sp)
    2676:	4422                	lw	s0,8(sp)
    2678:	0141                	addi	sp,sp,16
    267a:	8082                	ret

0000267c <_close>:
_close():
    267c:	05800793          	li	a5,88
    2680:	9af1aa23          	sw	a5,-1612(gp) # 2000429c <errno>
    2684:	557d                	li	a0,-1
    2686:	8082                	ret

00002688 <_fstat>:
_fstat():
    2688:	05800793          	li	a5,88
    268c:	9af1aa23          	sw	a5,-1612(gp) # 2000429c <errno>
    2690:	557d                	li	a0,-1
    2692:	8082                	ret

00002694 <_isatty>:
_isatty():
    2694:	05800793          	li	a5,88
    2698:	9af1aa23          	sw	a5,-1612(gp) # 2000429c <errno>
    269c:	4501                	li	a0,0
    269e:	8082                	ret

000026a0 <_lseek>:
_lseek():
    26a0:	05800793          	li	a5,88
    26a4:	9af1aa23          	sw	a5,-1612(gp) # 2000429c <errno>
    26a8:	557d                	li	a0,-1
    26aa:	8082                	ret

000026ac <_read>:
_read():
    26ac:	05800793          	li	a5,88
    26b0:	9af1aa23          	sw	a5,-1612(gp) # 2000429c <errno>
    26b4:	557d                	li	a0,-1
    26b6:	8082                	ret

000026b8 <_sbrk>:
_sbrk():
    26b8:	83018793          	addi	a5,gp,-2000 # 20004118 <heap_end.1518>
    26bc:	439c                	lw	a5,0(a5)
    26be:	c791                	beqz	a5,26ca <_sbrk+0x12>
    26c0:	953e                	add	a0,a0,a5
    26c2:	82a1a823          	sw	a0,-2000(gp) # 20004118 <heap_end.1518>
    26c6:	853e                	mv	a0,a5
    26c8:	8082                	ret
    26ca:	9b818793          	addi	a5,gp,-1608 # 200042a0 <_ebss>
    26ce:	953e                	add	a0,a0,a5
    26d0:	82a1a823          	sw	a0,-2000(gp) # 20004118 <heap_end.1518>
    26d4:	853e                	mv	a0,a5
    26d6:	8082                	ret
    26d8:	0000                	unimp
    26da:	0000                	unimp
    26dc:	0c0c                	addi	a1,sp,528
    26de:	3300                	fld	fs0,32(a4)
    26e0:	00000033          	add	zero,zero,zero
    26e4:	00b1                	addi	ra,ra,12
    26e6:	0000                	unimp
    26e8:	00000003          	lb	zero,0(zero) # 0 <_sinit>
    26ec:	27f0                	fld	fa2,200(a5)
    26ee:	0000                	unimp
    26f0:	00b0                	addi	a2,sp,72
    26f2:	0000                	unimp
    26f4:	0002                	c.slli64	zero
    26f6:	0000                	unimp
    26f8:	27f4                	fld	fa3,200(a5)
    26fa:	0000                	unimp
    26fc:	0029                	c.nop	10
    26fe:	0064                	addi	s1,sp,12
	...
    2708:	002c                	addi	a1,sp,8
    270a:	0032                	c.slli	zero,0xc
	...
    2714:	00ff                	0xff
	...
    271e:	0000                	unimp
    2720:	6946                	flw	fs2,80(sp)
    2722:	6c6c                	flw	fa1,92(s0)
    2724:	6e69                	lui	t3,0x1a
    2726:	72412067          	0x72412067
    272a:	6165                	addi	sp,sp,112
    272c:	7720                	flw	fs0,104(a4)
    272e:	7469                	lui	s0,0xffffa
    2730:	2068                	fld	fa0,192(s0)
    2732:	6f6c6f43          	fmadd.q	ft10,fs8,fs6,fa3,unknown
    2736:	3a72                	fld	fs4,312(sp)
    2738:	3020                	fld	fs0,96(s0)
    273a:	2578                	fld	fa4,200(a0)
    273c:	3430                	fld	fa2,104(s0)
    273e:	0a58                	addi	a4,sp,276
    2740:	0000                	unimp
    2742:	0000                	unimp
    2744:	0055                	c.nop	21
    2746:	0000                	unimp
    2748:	0035                	c.nop	13
    274a:	0000                	unimp
    274c:	001f 0000 0001      	0x10000001f
    2752:	0000                	unimp
    2754:	002c                	addi	a1,sp,8
    2756:	0000                	unimp
    2758:	0012                	c.slli	zero,0x4
    275a:	0000                	unimp
    275c:	a1a4                	fsd	fs1,64(a1)
    275e:	0000                	unimp
    2760:	0000000f          	fence	unknown,unknown
    2764:	08d0                	addi	a2,sp,84
    2766:	0811                	addi	a6,a6,4
    2768:	150c                	addi	a1,sp,672
    276a:	3339                	jal	2478 <_putc_r+0x82>
    276c:	3650                	fld	fa2,168(a2)
    276e:	2d291413          	0x2d291413
    2772:	0000                	unimp
    2774:	08d0                	addi	a2,sp,84
    2776:	0810                	addi	a2,sp,16
    2778:	0606                	slli	a2,a2,0x1
    277a:	4439                	li	s0,14
    277c:	0b51                	addi	s6,s6,20
    277e:	1416                	slli	s0,s0,0x25
    2780:	0000312f          	0x312f
    2784:	7552                	flw	fa0,52(sp)
    2786:	6e6e                	flw	ft8,216(sp)
    2788:	6e69                	lui	t3,0x1a
    278a:	6e492067          	0x6e492067
    278e:	7469                	lui	s0,0xffffa
    2790:	5320                	lw	s0,96(a4)
    2792:	7165                	addi	sp,sp,-400
    2794:	6575                	lui	a0,0x1d
    2796:	636e                	flw	ft6,216(sp)
    2798:	2e65                	jal	2b50 <_data_lma+0x208>
    279a:	2e2e                	fld	ft8,200(sp)
    279c:	0000                	unimp
    279e:	0000                	unimp
    27a0:	7552                	flw	fa0,52(sp)
    27a2:	6e6e                	flw	ft8,216(sp)
    27a4:	6e69                	lui	t3,0x1a
    27a6:	6e492067          	0x6e492067
    27aa:	7469                	lui	s0,0xffffa
    27ac:	5320                	lw	s0,96(a4)
    27ae:	7165                	addi	sp,sp,-400
    27b0:	6575                	lui	a0,0x1d
    27b2:	636e                	flw	ft6,216(sp)
    27b4:	2065                	jal	285c <_sbrk+0x1a4>
    27b6:	2e32                	fld	ft8,264(sp)
    27b8:	2e2e                	fld	ft8,200(sp)
    27ba:	0000                	unimp
    27bc:	646e6553          	0x646e6553
    27c0:	6e69                	lui	t3,0x1a
    27c2:	6f432067          	0x6f432067
    27c6:	6d6d                	lui	s10,0x1b
    27c8:	6e61                	lui	t3,0x18
    27ca:	3a64                	fld	fs1,240(a2)
    27cc:	3020                	fld	fs0,96(s0)
    27ce:	2578                	fld	fa4,200(a0)
    27d0:	3230                	fld	fa2,96(a2)
    27d2:	0a58                	addi	a4,sp,276
    27d4:	0000                	unimp
    27d6:	0000                	unimp
    27d8:	646e6553          	0x646e6553
    27dc:	6e69                	lui	t3,0x1a
    27de:	61442067          	0x61442067
    27e2:	6174                	flw	fa3,68(a0)
    27e4:	203a                	fld	ft0,392(sp)
    27e6:	0000                	unimp
    27e8:	7830                	flw	fa2,112(s0)
    27ea:	3025                	jal	2012 <_vfiprintf_r+0x26a>
    27ec:	5832                	lw	a6,44(sp)
    27ee:	0020                	addi	s0,sp,8
    27f0:	0842                	slli	a6,a6,0x10
    27f2:	003c                	addi	a5,sp,8
    27f4:	c211                	beqz	a2,27f8 <_sbrk+0x140>
    27f6:	0000                	unimp
    27f8:	72617453          	0x72617453
    27fc:	2074                	fld	fa3,192(s0)
    27fe:	4340                	lw	s0,4(a4)
    2800:	6968                	flw	fa0,84(a0)
    2802:	4970                	lw	a2,84(a0)
    2804:	3d44                	fld	fs1,184(a0)
    2806:	3025                	jal	202e <_vfiprintf_r+0x286>
    2808:	5832                	lw	a6,44(sp)
    280a:	000a                	c.slli	zero,0x2
    280c:	2e31                	jal	2b28 <_data_lma+0x1e0>
    280e:	30697073          	csrci	mcounteren,18
    2812:	6d20                	flw	fs0,88(a0)
    2814:	6c75                	lui	s8,0x1d
    2816:	6d20                	flw	fs0,88(a0)
    2818:	7361                	lui	t1,0xffff8
    281a:	6574                	flw	fa3,76(a0)
    281c:	2072                	fld	ft0,280(sp)
    281e:	6f6d                	lui	t5,0x1b
    2820:	6564                	flw	fs1,76(a0)
    2822:	7320                	flw	fs0,96(a4)
    2824:	6e65                	lui	t3,0x19
    2826:	2064                	fld	fs1,192(s0)
    2828:	6164                	flw	fs1,68(a0)
    282a:	6174                	flw	fa3,68(a0)
    282c:	2e20                	fld	fs0,88(a2)
    282e:	2e2e                	fld	ft8,200(sp)
    2830:	0000                	unimp
    2832:	0000                	unimp
    2834:	6e49                	lui	t3,0x12
    2836:	7469                	lui	s0,0xffffa
    2838:	6169                	addi	sp,sp,208
    283a:	696c                	flw	fa1,84(a0)
    283c:	617a                	flw	ft2,156(sp)
    283e:	6974                	flw	fa3,84(a0)
    2840:	63206e6f          	jal	t3,8e72 <_data_lma+0x652a>
    2844:	6c706d6f          	jal	s10,970a <_data_lma+0x6dc2>
    2848:	7465                	lui	s0,0xffff9
    284a:	2e65                	jal	2c02 <_data_lma+0x2ba>
    284c:	0000                	unimp
    284e:	0000                	unimp
    2850:	65726353          	0x65726353
    2854:	6e65                	lui	t3,0x19
    2856:	6320                	flw	fs0,64(a4)
    2858:	656c                	flw	fa1,76(a0)
    285a:	7261                	lui	tp,0xffff8
    285c:	6465                	lui	s0,0x19
    285e:	002e                	c.slli	zero,0xb
    2860:	7244                	flw	fs1,36(a2)
    2862:	7765                	lui	a4,0xffff9
    2864:	6120                	flw	fs0,64(a0)
    2866:	7220                	flw	fs0,96(a2)
    2868:	6465                	lui	s0,0x19
    286a:	7220                	flw	fs0,96(a2)
    286c:	6365                	lui	t1,0x19
    286e:	6174                	flw	fa3,68(a0)
    2870:	676e                	flw	fa4,216(sp)
    2872:	656c                	flw	fa1,76(a0)
    2874:	002e                	c.slli	zero,0xb
    2876:	0000                	unimp
    2878:	4e45                	li	t3,17
    287a:	2044                	fld	fs1,128(s0)
    287c:	2e2e                	fld	ft8,200(sp)
    287e:	002e                	c.slli	zero,0xb
    2880:	e898                	fsw	fa4,16(s1)
    2882:	ffff                	0xffff
    2884:	e8c0                	fsw	fs0,20(s1)
    2886:	ffff                	0xffff
    2888:	e8e8                	fsw	fa0,84(s1)
    288a:	ffff                	0xffff
    288c:	e900                	fsw	fs0,16(a0)
    288e:	ffff                	0xffff
    2890:	e91a                	fsw	ft6,144(sp)
    2892:	ffff                	0xffff
    2894:	6148                	flw	fa0,4(a0)
    2896:	6472                	flw	fs0,28(sp)
    2898:	6146                	flw	ft2,80(sp)
    289a:	6c75                	lui	s8,0x1d
    289c:	5f74                	lw	a3,124(a4)
    289e:	6148                	flw	fa0,4(a0)
    28a0:	646e                	flw	fs0,216(sp)
    28a2:	656c                	flw	fa1,76(a0)
    28a4:	0072                	c.slli	zero,0x1c
	...

000028a8 <__sf_fake_stderr>:
	...

000028c8 <__sf_fake_stdin>:
	...

000028e8 <__sf_fake_stdout>:
	...
    2908:	2d23 2b30 0020 0000 6c68 004c 6665 4567     #-0+ ...hlL.efgE
    2918:	4746 0000 3130 3332 3534 3736 3938 4241     FG..0123456789AB
    2928:	4443 4645 0000 0000 3130 3332 3534 3736     CDEF....01234567
    2938:	3938 6261 6463 6665 0000 0000               89abcdef....

00002944 <_global_impure_ptr>:
    2944:	4088 2000                                   .@. 
