
CH573_PT_Template.elf:     file format elf32-littleriscv
CH573_PT_Template.elf
architecture: riscv:rv32, flags 0x00000112:
EXEC_P, HAS_SYMS, D_PAGED
start address 0x00000000

Program Header:
    LOAD off    0x00001000 vaddr 0x00000000 paddr 0x00000000 align 2**12
         filesz 0x00000004 memsz 0x00000004 flags r-x
    LOAD off    0x00001800 vaddr 0x20003800 paddr 0x00000004 align 2**12
         filesz 0x0000087c memsz 0x0000087c flags r-x
    LOAD off    0x00002880 vaddr 0x00000880 paddr 0x00000880 align 2**12
         filesz 0x00001164 memsz 0x00001164 flags r-x
    LOAD off    0x0000407c vaddr 0x2000407c paddr 0x000019e4 align 2**12
         filesz 0x00000074 memsz 0x00000290 flags rw-

Sections:
Idx Name            Size      VMA       LMA       File off  Algn  Flags
  0 .init           00000004  00000000  00000000  00001000  2**1  CONTENTS, ALLOC, LOAD, READONLY, CODE
  1 .highcodelalign 00000000  00000004  00000004  000040f0  2**0  CONTENTS
  2 .highcode       0000087c  20003800  00000004  00001800  2**1  CONTENTS, ALLOC, LOAD, READONLY, CODE
  3 .text           00001164  00000880  00000880  00002880  2**2  CONTENTS, ALLOC, LOAD, READONLY, CODE
  4 .fini           00000000  000019e4  000019e4  000040f0  2**0  CONTENTS, ALLOC, LOAD, CODE
  5 .dalign         00000000  2000407c  2000407c  000040f0  2**0  CONTENTS
  6 .dlalign        00000000  000019e4  000019e4  000040f0  2**0  CONTENTS
  7 .data           00000074  2000407c  000019e4  0000407c  2**2  CONTENTS, ALLOC, LOAD, DATA
  8 .bss            0000021c  200040f0  00001a58  000040f0  2**2  ALLOC
  9 .stack          00000000  20008000  20008000  000040f0  2**0  CONTENTS
 10 .debug_info     00009248  00000000  00000000  000040f0  2**0  CONTENTS, READONLY, DEBUGGING
 11 .debug_abbrev   00001d81  00000000  00000000  0000d338  2**0  CONTENTS, READONLY, DEBUGGING
 12 .debug_loc      00001218  00000000  00000000  0000f0b9  2**0  CONTENTS, READONLY, DEBUGGING
 13 .debug_aranges  00000360  00000000  00000000  000102d8  2**3  CONTENTS, READONLY, DEBUGGING
 14 .debug_ranges   000003c0  00000000  00000000  00010638  2**3  CONTENTS, READONLY, DEBUGGING
 15 .debug_line     000048a1  00000000  00000000  000109f8  2**0  CONTENTS, READONLY, DEBUGGING
 16 .debug_str      000014c0  00000000  00000000  00015299  2**0  CONTENTS, READONLY, DEBUGGING
 17 .comment        00000033  00000000  00000000  00016759  2**0  CONTENTS, READONLY
 18 .debug_frame    00000ea8  00000000  00000000  0001678c  2**2  CONTENTS, READONLY, DEBUGGING
 19 .stab           00000084  00000000  00000000  00017634  2**2  CONTENTS, READONLY, DEBUGGING
 20 .stabstr        00000117  00000000  00000000  000176b8  2**0  CONTENTS, READONLY, DEBUGGING
SYMBOL TABLE:
00000000 l    d  .init	00000000 .init
00000004 l    d  .highcodelalign	00000000 .highcodelalign
20003800 l    d  .highcode	00000000 .highcode
00000880 l    d  .text	00000000 .text
000019e4 l    d  .fini	00000000 .fini
2000407c l    d  .dalign	00000000 .dalign
000019e4 l    d  .dlalign	00000000 .dlalign
2000407c l    d  .data	00000000 .data
200040f0 l    d  .bss	00000000 .bss
20008000 l    d  .stack	00000000 .stack
00000000 l    d  .debug_info	00000000 .debug_info
00000000 l    d  .debug_abbrev	00000000 .debug_abbrev
00000000 l    d  .debug_loc	00000000 .debug_loc
00000000 l    d  .debug_aranges	00000000 .debug_aranges
00000000 l    d  .debug_ranges	00000000 .debug_ranges
00000000 l    d  .debug_line	00000000 .debug_line
00000000 l    d  .debug_str	00000000 .debug_str
00000000 l    d  .comment	00000000 .comment
00000000 l    d  .debug_frame	00000000 .debug_frame
00000000 l    d  .stab	00000000 .stab
00000000 l    d  .stabstr	00000000 .stabstr
00000000 l    df *ABS*	00000000 ./Core/Startup/startup_CH573.o
20003800 l       .highcode	00000000 _vector_base
00000000 l    df *ABS*	00000000 pt_ports.c
00000000 l    df *ABS*	00000000 etimer.c
00000ad4 l     F .text	0000004a update_time
00000b1e l     F .text	000000cc process_thread_etimer_process
20004100 l     O .bss	00000004 next_expiration
20004104 l     O .bss	00000004 timerlist
00000000 l    df *ABS*	00000000 process.c
20003930 l     F .highcode	00000054 call_process
20003984 l     F .highcode	0000009a exit_process
20003a1e l     F .highcode	00000038 do_poll
20003a56 l     F .highcode	00000090 do_event
20004188 l     O .bss	00000180 events
20004108 l     O .bss	00000001 fevent
20004109 l     O .bss	00000001 nevents
2000410a l     O .bss	00000001 poll_requested
00000000 l    df *ABS*	00000000 CH57x_sys.c
00000000 l    df *ABS*	00000000 RTC.c
00000000 l    df *ABS*	00000000 ISP573.c
20003cb2 l     F .highcode	00000010 FLASH_ROM_BEG
20003cc2 l     F .highcode	0000000e FLASH_ROM_END
20003cc2 l       .highcode	00000000 .loop17
20003cd0 l     F .highcode	0000000e FLASH_ROM_IN
20003cd0 l       .highcode	00000000 .loop28
20003cde l     F .highcode	0000000e FLASH_ROM_OUT
20003cde l       .highcode	00000000 .loop39
20003cec l     F .highcode	00000048 FLASH_ROM_ADDR
20003d34 l     F .highcode	00000038 FLASH_ROM_WAIT
20003f5e l       .highcode	00000000 .loop400
00000000 l    df *ABS*	00000000 CH57x_uart_threads.c
200040f0 l     O .bss	00000001 i.3822
200040f1 l     O .bss	00000001 len.3813
00000000 l    df *ABS*	00000000 main.c
00000000 l    df *ABS*	00000000 timer.c
00000000 l    df *ABS*	00000000 CH57x_gpio.c
00000000 l    df *ABS*	00000000 CH57x_uart1.c
00000000 l    df *ABS*	00000000 puts.c
00000000 l    df *ABS*	00000000 wbuf.c
00000000 l    df *ABS*	00000000 wsetup.c
00000000 l    df *ABS*	00000000 fflush.c
00000000 l    df *ABS*	00000000 findfp.c
00001260 l     F .text	0000006a std
00000000 l    df *ABS*	00000000 fwalk.c
00000000 l    df *ABS*	00000000 makebuf.c
00000000 l    df *ABS*	00000000 nano-mallocr.c
00000000 l    df *ABS*	00000000 nano-mallocr.c
00000000 l    df *ABS*	00000000 sbrkr.c
00000000 l    df *ABS*	00000000 stdio.c
00000000 l    df *ABS*	00000000 writer.c
00000000 l    df *ABS*	00000000 closer.c
00000000 l    df *ABS*	00000000 fstatr.c
00000000 l    df *ABS*	00000000 isattyr.c
00000000 l    df *ABS*	00000000 lseekr.c
00000000 l    df *ABS*	00000000 mlock.c
00000000 l    df *ABS*	00000000 readr.c
00000000 l    df *ABS*	00000000 close.c
00000000 l    df *ABS*	00000000 fstat.c
00000000 l    df *ABS*	00000000 isatty.c
00000000 l    df *ABS*	00000000 lseek.c
00000000 l    df *ABS*	00000000 read.c
00000000 l    df *ABS*	00000000 sbrk.c
20004120 l     O .bss	00000004 heap_end.1518
00000000 l    df *ABS*	00000000 impure.c
20004088 l     O .data	00000060 impure_data
00000000 l    df *ABS*	00000000 reent.c
00001858 g     F .text	00000028 _isatty_r
00000db6 g     F .text	00000028 UART1_SendString
00000e08 g     F .text	000000da _puts_r
00001880 g     F .text	0000002c _lseek_r
200048e8 g       .data	00000000 __global_pointer$
0000179c g     F .text	00000036 __sseek
0000131a g     F .text	0000006a __sinit
00000ef0 g     F .text	000000c0 __swbuf_r
20003c66 g     F .highcode	0000000e mDelayuS
20003c54 g     F .highcode	00000012 HardFault_Handler
2000390c g     F .highcode	0000000c etimer_pending
000012d4 g     F .text	00000046 __sfmoreglue
2000389c  w      .highcode	00000000 GPIOB_IRQHandler
000018ae g     F .text	00000002 __malloc_unlock
200038bc g     F .highcode	00000008 protothread_clock_time
2000389a  w      .highcode	00000000 GPIOA_IRQHandler
200038c4 g     F .highcode	0000003e SysTick_Handler
00000dde g     F .text	0000002a UART1_RecvString
20003890  w      .highcode	00000000 NMI_Handler
00000bea g     F .text	00000036 process_post
200038ac  w      .highcode	00000000 UART1_IRQHandler
2000407c g     O .data	0000000c etimer_process
200040f8 g     O .bss	00000002 pt_send
0000182e g     F .text	0000002a _fstat_r
20004308 g     O .bss	00000004 errno
200040f0 g       .bss	00000000 _sbss
20004114 g     O .bss	00000004 RTCTigFlag
200038aa  w      .highcode	00000000 UART0_IRQHandler
20004110 g     O .bss	00000004 process_list
000009f0 g     F .text	0000006c protothread_recv
000012ca g     F .text	0000000a _cleanup_r
00000ee2 g     F .text	0000000e puts
000018e8 g     F .text	0000000c _fstat
00000004 g       .init	00000000 _einit
200038a0  w      .highcode	00000000 BB_IRQHandler
20003d6c g     F .highcode	0000030e FLASH_EEPROM_CMD
000016f6 g     F .text	00000028 _sbrk_r
20003898  w      .highcode	00000000 TMR0_IRQHandler
000018b0 g     F .text	0000002c _read_r
20003c74 g     F .highcode	00000028 mDelaymS
000018f4 g     F .text	0000000c _isatty
000019e0 g     O .text	00000004 _global_impure_ptr
20003b08 g     F .highcode	0000001c process_poll
00001918 g     F .text	00000020 _sbrk
20003c9c g     F .highcode	00000016 RTC_IRQHandler
2000430c g       .bss	00000000 _ebss
00000d84 g     F .text	00000032 UART1_DefInit
00001980 g     O .text	00000020 __sf_fake_stderr
00000c20 g     F .text	00000024 timer_expired
2000430c g       .bss	00000000 end
200038b6  w      .highcode	00000000 UART2_IRQHandler
200038b2  w      .highcode	00000000 PWMX_IRQHandler
00001584 g     F .text	000000a4 _free_r
00000000 g       .init	00000000 _start
00001900 g     F .text	0000000c _lseek
200038b0  w      .highcode	00000000 ADC_IRQHandler
20003800 g       .highcode	00000000 _highcode_vma_start
200038a8  w      .highcode	00000000 TMR2_IRQHandler
20003918 g     F .highcode	00000018 etimer_next_expiration_time
00001806 g     F .text	00000028 _close_r
2000407c g       .data	00000000 _data_vma
20003902 g     F .highcode	0000000a etimer_request_poll
20003b24 g     F .highcode	000000f8 SetSysClock
200038a4  w      .highcode	00000000 USB_IRQHandler
00000fb0 g     F .text	00000110 __swsetup_r
00001384 g     F .text	000000a0 __sfp
0000171e g     F .text	00000030 __sread
000018ac g     F .text	00000002 __malloc_lock
000011fc g     F .text	00000064 _fflush_r
00000a5c g     F .text	0000003c protothread_send
000019a0 g     O .text	00000020 __sf_fake_stdin
0000091e g     F .text	000000a8 memset
00000a98 g     F .text	0000003c main
000017d2 g     F .text	00000006 __sclose
200040fc g     O .bss	00000004 ptTicks
00001628 g     F .text	000000ce _malloc_r
00000004 g       .highcodelalign	00000000 _highcode_lma
200038a2  w      .highcode	00000000 LLE_IRQHandler
00000000 g       .init	00000000 _sinit
000017d8 g     F .text	0000002e _write_r
200040e8 g     O .data	00000004 _impure_ptr
000010c0 g     F .text	0000013c __sflush_r
200038ba  w      .highcode	00000000 WDOG_BAT_IRQHandler
20004124 g     O .bss	00000064 RxBuff
200038b4  w      .highcode	00000000 TMR3_IRQHandler
20008000 g       .stack	00000000 _eusrstack
20003896  w      .highcode	00000000 SW_Handler
00000c44 g     F .text	000000a6 GPIOA_ModeCfg
00001490 g     F .text	00000058 __swhatbuf_r
00000cea g     F .text	00000042 GetSysClock
200040f4 g     O .bss	00000002 pt_recv
20003ae6 g     F .highcode	00000022 process_run
00000d2c g     F .text	00000028 _write
200040f0 g       .data	00000000 _edata
2000410c g     O .bss	00000004 process_current
2000389e  w      .highcode	00000000 SPI0_IRQHandler
2000407c g       .highcode	00000000 _highcode_vma_end
000019e4 g       .dlalign	00000000 _data_lma
0000174e g     F .text	0000004e __swrite
00001424 g     F .text	0000006c _fwalk_reent
000019c0 g     O .text	00000020 __sf_fake_stdout
0000190c g     F .text	0000000c _read
00000880  w      .text	00000000 handle_reset
000014e8 g     F .text	0000009c __smakebuf_r
200038b8  w      .highcode	00000000 UART3_IRQHandler
2000411c g     O .bss	00000004 __malloc_sbrk_start
20004118 g     O .bss	00000004 __malloc_free_list
200038a6  w      .highcode	00000000 TMR1_IRQHandler
000009c6 g     F .text	0000002a UART1_Init
20003c1c g     F .highcode	00000038 SYS_ResetExecute
000018dc g     F .text	0000000c _close
00000d54 g     F .text	00000030 UART1_BaudRateCfg



Disassembly of section .init:

00000000 <_sinit>:
_start():
F:\文档\串口助手\ProtoThread\ProtoThread-Templates-main\CH573_PT_Template\obj/../Core/Startup/startup_CH573.S:13

	.section	.init,"ax",@progbits
	.global	_start
	.align	1
_start:
	j	handle_reset
   0:	0810006f          	j	880 <handle_reset>

Disassembly of section .highcode:

20003800 <_highcode_vma_start>:
	...
_vector_base():
F:\文档\串口助手\ProtoThread\ProtoThread-Templates-main\CH573_PT_Template\obj/../Core/Startup/startup_CH573.S:21
    .align  1
_vector_base:
    .option norvc;
    .word   0
    .word   0
        j   NMI_Handler                 /* NMI Handler */
20003808:	0880006f          	j	20003890 <NMI_Handler>
F:\文档\串口助手\ProtoThread\ProtoThread-Templates-main\CH573_PT_Template\obj/../Core/Startup/startup_CH573.S:22
        j   HardFault_Handler           /* Hard Fault Handler */
2000380c:	4480006f          	j	20003c54 <HardFault_Handler>
	...
F:\文档\串口助手\ProtoThread\ProtoThread-Templates-main\CH573_PT_Template\obj/../Core/Startup/startup_CH573.S:31
    .word   0
    .word   0
    .word   0
    .word   0
    .word   0
        j   SysTick_Handler            /* SysTick Handler */
20003830:	0940006f          	j	200038c4 <SysTick_Handler>
20003834:	0000                	unimp
20003836:	0000                	unimp
F:\文档\串口助手\ProtoThread\ProtoThread-Templates-main\CH573_PT_Template\obj/../Core/Startup/startup_CH573.S:33
    .word   0
        j   SW_Handler                 /* SW Handler */
20003838:	05e0006f          	j	20003896 <SW_Handler>
2000383c:	0000                	unimp
2000383e:	0000                	unimp
F:\文档\串口助手\ProtoThread\ProtoThread-Templates-main\CH573_PT_Template\obj/../Core/Startup/startup_CH573.S:36
    .word   0
    /* External Interrupts */
        j   TMR0_IRQHandler            /* 0:  TMR0 */
20003840:	0580006f          	j	20003898 <TMR0_IRQHandler>
F:\文档\串口助手\ProtoThread\ProtoThread-Templates-main\CH573_PT_Template\obj/../Core/Startup/startup_CH573.S:37
        j   GPIOA_IRQHandler           /* GPIOA */
20003844:	0560006f          	j	2000389a <GPIOA_IRQHandler>
F:\文档\串口助手\ProtoThread\ProtoThread-Templates-main\CH573_PT_Template\obj/../Core/Startup/startup_CH573.S:38
        j   GPIOB_IRQHandler           /* GPIOB */
20003848:	0540006f          	j	2000389c <GPIOB_IRQHandler>
F:\文档\串口助手\ProtoThread\ProtoThread-Templates-main\CH573_PT_Template\obj/../Core/Startup/startup_CH573.S:39
        j   SPI0_IRQHandler            /* SPI0 */
2000384c:	0520006f          	j	2000389e <SPI0_IRQHandler>
F:\文档\串口助手\ProtoThread\ProtoThread-Templates-main\CH573_PT_Template\obj/../Core/Startup/startup_CH573.S:40
        j   BB_IRQHandler              /* BLEB */
20003850:	0500006f          	j	200038a0 <BB_IRQHandler>
F:\文档\串口助手\ProtoThread\ProtoThread-Templates-main\CH573_PT_Template\obj/../Core/Startup/startup_CH573.S:41
        j   LLE_IRQHandler             /* BLEL */
20003854:	04e0006f          	j	200038a2 <LLE_IRQHandler>
F:\文档\串口助手\ProtoThread\ProtoThread-Templates-main\CH573_PT_Template\obj/../Core/Startup/startup_CH573.S:42
        j   USB_IRQHandler             /* USB */
20003858:	04c0006f          	j	200038a4 <USB_IRQHandler>
2000385c:	0000                	unimp
2000385e:	0000                	unimp
F:\文档\串口助手\ProtoThread\ProtoThread-Templates-main\CH573_PT_Template\obj/../Core/Startup/startup_CH573.S:44
        .word   0
        j   TMR1_IRQHandler            /* TMR1 */
20003860:	0460006f          	j	200038a6 <TMR1_IRQHandler>
F:\文档\串口助手\ProtoThread\ProtoThread-Templates-main\CH573_PT_Template\obj/../Core/Startup/startup_CH573.S:45
        j   TMR2_IRQHandler            /* TMR2 */
20003864:	0440006f          	j	200038a8 <TMR2_IRQHandler>
F:\文档\串口助手\ProtoThread\ProtoThread-Templates-main\CH573_PT_Template\obj/../Core/Startup/startup_CH573.S:46
        j   UART0_IRQHandler           /* UART0 */
20003868:	0420006f          	j	200038aa <UART0_IRQHandler>
F:\文档\串口助手\ProtoThread\ProtoThread-Templates-main\CH573_PT_Template\obj/../Core/Startup/startup_CH573.S:47
        j   UART1_IRQHandler           /* UART1 */
2000386c:	0400006f          	j	200038ac <UART1_IRQHandler>
F:\文档\串口助手\ProtoThread\ProtoThread-Templates-main\CH573_PT_Template\obj/../Core/Startup/startup_CH573.S:48
        j   RTC_IRQHandler             /* RTC */
20003870:	42c0006f          	j	20003c9c <RTC_IRQHandler>
F:\文档\串口助手\ProtoThread\ProtoThread-Templates-main\CH573_PT_Template\obj/../Core/Startup/startup_CH573.S:49
        j   ADC_IRQHandler             /* ADC */
20003874:	03c0006f          	j	200038b0 <ADC_IRQHandler>
20003878:	0000                	unimp
2000387a:	0000                	unimp
F:\文档\串口助手\ProtoThread\ProtoThread-Templates-main\CH573_PT_Template\obj/../Core/Startup/startup_CH573.S:51
        .word   0
        j   PWMX_IRQHandler            /* PWMX */
2000387c:	0360006f          	j	200038b2 <PWMX_IRQHandler>
F:\文档\串口助手\ProtoThread\ProtoThread-Templates-main\CH573_PT_Template\obj/../Core/Startup/startup_CH573.S:52
        j   TMR3_IRQHandler            /* TMR3 */
20003880:	0340006f          	j	200038b4 <TMR3_IRQHandler>
F:\文档\串口助手\ProtoThread\ProtoThread-Templates-main\CH573_PT_Template\obj/../Core/Startup/startup_CH573.S:53
        j   UART2_IRQHandler           /* UART2 */
20003884:	0320006f          	j	200038b6 <UART2_IRQHandler>
F:\文档\串口助手\ProtoThread\ProtoThread-Templates-main\CH573_PT_Template\obj/../Core/Startup/startup_CH573.S:54
        j   UART3_IRQHandler           /* UART3 */
20003888:	0300006f          	j	200038b8 <UART3_IRQHandler>
F:\文档\串口助手\ProtoThread\ProtoThread-Templates-main\CH573_PT_Template\obj/../Core/Startup/startup_CH573.S:55
        j   WDOG_BAT_IRQHandler        /* WDOG_BAT */
2000388c:	02e0006f          	j	200038ba <WDOG_BAT_IRQHandler>

20003890 <NMI_Handler>:
NMI_Handler():
F:\文档\串口助手\ProtoThread\ProtoThread-Templates-main\CH573_PT_Template\obj/../Core/Startup/startup_CH573.S:83
    .weak   TMR3_IRQHandler
    .weak   UART2_IRQHandler
    .weak   UART3_IRQHandler
    .weak   WDOG_BAT_IRQHandler

NMI_Handler:  1:  j 1b
20003890:	a001                	j	20003890 <NMI_Handler>
F:\文档\串口助手\ProtoThread\ProtoThread-Templates-main\CH573_PT_Template\obj/../Core/Startup/startup_CH573.S:84
HardFault_Handler:  1:  j 1b
20003892:	a001                	j	20003892 <NMI_Handler+0x2>
F:\文档\串口助手\ProtoThread\ProtoThread-Templates-main\CH573_PT_Template\obj/../Core/Startup/startup_CH573.S:85
SysTick_Handler:  1:  j 1b
20003894:	a001                	j	20003894 <NMI_Handler+0x4>

20003896 <SW_Handler>:
SW_Handler():
F:\文档\串口助手\ProtoThread\ProtoThread-Templates-main\CH573_PT_Template\obj/../Core/Startup/startup_CH573.S:86
SW_Handler:  1:  j 1b
20003896:	a001                	j	20003896 <SW_Handler>

20003898 <TMR0_IRQHandler>:
TMR0_IRQHandler():
F:\文档\串口助手\ProtoThread\ProtoThread-Templates-main\CH573_PT_Template\obj/../Core/Startup/startup_CH573.S:87
TMR0_IRQHandler:  1:  j 1b
20003898:	a001                	j	20003898 <TMR0_IRQHandler>

2000389a <GPIOA_IRQHandler>:
GPIOA_IRQHandler():
F:\文档\串口助手\ProtoThread\ProtoThread-Templates-main\CH573_PT_Template\obj/../Core/Startup/startup_CH573.S:88
GPIOA_IRQHandler:  1:  j 1b
2000389a:	a001                	j	2000389a <GPIOA_IRQHandler>

2000389c <GPIOB_IRQHandler>:
GPIOB_IRQHandler():
F:\文档\串口助手\ProtoThread\ProtoThread-Templates-main\CH573_PT_Template\obj/../Core/Startup/startup_CH573.S:89
GPIOB_IRQHandler:  1:  j 1b
2000389c:	a001                	j	2000389c <GPIOB_IRQHandler>

2000389e <SPI0_IRQHandler>:
SPI0_IRQHandler():
F:\文档\串口助手\ProtoThread\ProtoThread-Templates-main\CH573_PT_Template\obj/../Core/Startup/startup_CH573.S:90
SPI0_IRQHandler:  1:  j 1b
2000389e:	a001                	j	2000389e <SPI0_IRQHandler>

200038a0 <BB_IRQHandler>:
BB_IRQHandler():
F:\文档\串口助手\ProtoThread\ProtoThread-Templates-main\CH573_PT_Template\obj/../Core/Startup/startup_CH573.S:91
BB_IRQHandler:  1:  j 1b
200038a0:	a001                	j	200038a0 <BB_IRQHandler>

200038a2 <LLE_IRQHandler>:
LLE_IRQHandler():
F:\文档\串口助手\ProtoThread\ProtoThread-Templates-main\CH573_PT_Template\obj/../Core/Startup/startup_CH573.S:92
LLE_IRQHandler:  1:  j 1b
200038a2:	a001                	j	200038a2 <LLE_IRQHandler>

200038a4 <USB_IRQHandler>:
USB_IRQHandler():
F:\文档\串口助手\ProtoThread\ProtoThread-Templates-main\CH573_PT_Template\obj/../Core/Startup/startup_CH573.S:93
USB_IRQHandler:  1:  j 1b
200038a4:	a001                	j	200038a4 <USB_IRQHandler>

200038a6 <TMR1_IRQHandler>:
TMR1_IRQHandler():
F:\文档\串口助手\ProtoThread\ProtoThread-Templates-main\CH573_PT_Template\obj/../Core/Startup/startup_CH573.S:94
TMR1_IRQHandler:  1:  j 1b
200038a6:	a001                	j	200038a6 <TMR1_IRQHandler>

200038a8 <TMR2_IRQHandler>:
TMR2_IRQHandler():
F:\文档\串口助手\ProtoThread\ProtoThread-Templates-main\CH573_PT_Template\obj/../Core/Startup/startup_CH573.S:95
TMR2_IRQHandler:  1:  j 1b
200038a8:	a001                	j	200038a8 <TMR2_IRQHandler>

200038aa <UART0_IRQHandler>:
UART0_IRQHandler():
F:\文档\串口助手\ProtoThread\ProtoThread-Templates-main\CH573_PT_Template\obj/../Core/Startup/startup_CH573.S:96
UART0_IRQHandler:  1:  j 1b
200038aa:	a001                	j	200038aa <UART0_IRQHandler>

200038ac <UART1_IRQHandler>:
UART1_IRQHandler():
F:\文档\串口助手\ProtoThread\ProtoThread-Templates-main\CH573_PT_Template\obj/../Core/Startup/startup_CH573.S:97
UART1_IRQHandler:  1:  j 1b
200038ac:	a001                	j	200038ac <UART1_IRQHandler>
F:\文档\串口助手\ProtoThread\ProtoThread-Templates-main\CH573_PT_Template\obj/../Core/Startup/startup_CH573.S:98
RTC_IRQHandler:  1:  j 1b
200038ae:	a001                	j	200038ae <UART1_IRQHandler+0x2>

200038b0 <ADC_IRQHandler>:
ADC_IRQHandler():
F:\文档\串口助手\ProtoThread\ProtoThread-Templates-main\CH573_PT_Template\obj/../Core/Startup/startup_CH573.S:99
ADC_IRQHandler:  1:  j 1b
200038b0:	a001                	j	200038b0 <ADC_IRQHandler>

200038b2 <PWMX_IRQHandler>:
PWMX_IRQHandler():
F:\文档\串口助手\ProtoThread\ProtoThread-Templates-main\CH573_PT_Template\obj/../Core/Startup/startup_CH573.S:100
PWMX_IRQHandler:  1:  j 1b
200038b2:	a001                	j	200038b2 <PWMX_IRQHandler>

200038b4 <TMR3_IRQHandler>:
TMR3_IRQHandler():
F:\文档\串口助手\ProtoThread\ProtoThread-Templates-main\CH573_PT_Template\obj/../Core/Startup/startup_CH573.S:101
TMR3_IRQHandler:  1:  j 1b
200038b4:	a001                	j	200038b4 <TMR3_IRQHandler>

200038b6 <UART2_IRQHandler>:
UART2_IRQHandler():
F:\文档\串口助手\ProtoThread\ProtoThread-Templates-main\CH573_PT_Template\obj/../Core/Startup/startup_CH573.S:102
UART2_IRQHandler:  1:  j 1b
200038b6:	a001                	j	200038b6 <UART2_IRQHandler>

200038b8 <UART3_IRQHandler>:
UART3_IRQHandler():
F:\文档\串口助手\ProtoThread\ProtoThread-Templates-main\CH573_PT_Template\obj/../Core/Startup/startup_CH573.S:103
UART3_IRQHandler:  1:  j 1b
200038b8:	a001                	j	200038b8 <UART3_IRQHandler>

200038ba <WDOG_BAT_IRQHandler>:
WDOG_BAT_IRQHandler():
F:\文档\串口助手\ProtoThread\ProtoThread-Templates-main\CH573_PT_Template\obj/../Core/Startup/startup_CH573.S:104
WDOG_BAT_IRQHandler:  1:  j 1b
200038ba:	a001                	j	200038ba <WDOG_BAT_IRQHandler>

200038bc <protothread_clock_time>:
protothread_clock_time():
F:\文档\串口助手\ProtoThread\ProtoThread-Templates-main\CH573_PT_Template\obj/../OS/ProtoThread-Core/transplant_ports/pt_ports.c:64
 */
__attribute__((section(".highcode")))
clock_time_t protothread_clock_time(void)
{
  return ptTicks;
}
200038bc:	81418793          	addi	a5,gp,-2028 # 200040fc <ptTicks>
200038c0:	4388                	lw	a0,0(a5)
200038c2:	8082                	ret

200038c4 <SysTick_Handler>:
SysTick_Handler():
F:\文档\串口助手\ProtoThread\ProtoThread-Templates-main\CH573_PT_Template\obj/../OS/ProtoThread-Core/transplant_ports/pt_ports.c:70

__attribute__((interrupt("WCH-Interrupt-fast")))
__attribute__((section(".highcode")))
void SysTick_Handler(void)
{
  if( SysTick->CNTFG & 0x00000002 ){
200038c4:	e000f7b7          	lui	a5,0xe000f
200038c8:	4bdc                	lw	a5,20(a5)
200038ca:	8b89                	andi	a5,a5,2
200038cc:	cb8d                	beqz	a5,200038fe <SysTick_Handler+0x3a>
F:\文档\串口助手\ProtoThread\ProtoThread-Templates-main\CH573_PT_Template\obj/../OS/ProtoThread-Core/transplant_ports/pt_ports.c:69
{
200038ce:	1141                	addi	sp,sp,-16
200038d0:	c622                	sw	s0,12(sp)
F:\文档\串口助手\ProtoThread\ProtoThread-Templates-main\CH573_PT_Template\obj/../OS/ProtoThread-Core/transplant_ports/pt_ports.c:71
    ptTicks++;
200038d2:	81418413          	addi	s0,gp,-2028 # 200040fc <ptTicks>
200038d6:	401c                	lw	a5,0(s0)
200038d8:	0785                	addi	a5,a5,1
200038da:	80f1aa23          	sw	a5,-2028(gp) # 200040fc <ptTicks>
F:\文档\串口助手\ProtoThread\ProtoThread-Templates-main\CH573_PT_Template\obj/../OS/ProtoThread-Core/transplant_ports/pt_ports.c:72
    if(etimer_pending() && etimer_next_expiration_time()<= ptTicks)
200038de:	203d                	jal	2000390c <etimer_pending>
200038e0:	c511                	beqz	a0,200038ec <SysTick_Handler+0x28>
F:\文档\串口助手\ProtoThread\ProtoThread-Templates-main\CH573_PT_Template\obj/../OS/ProtoThread-Core/transplant_ports/pt_ports.c:72 (discriminator 1)
200038e2:	281d                	jal	20003918 <etimer_next_expiration_time>
200038e4:	401c                	lw	a5,0(s0)
200038e6:	00a7e363          	bltu	a5,a0,200038ec <SysTick_Handler+0x28>
F:\文档\串口助手\ProtoThread\ProtoThread-Templates-main\CH573_PT_Template\obj/../OS/ProtoThread-Core/transplant_ports/pt_ports.c:74
    {
      etimer_request_poll();
200038ea:	2821                	jal	20003902 <etimer_request_poll>
F:\文档\串口助手\ProtoThread\ProtoThread-Templates-main\CH573_PT_Template\obj/../OS/ProtoThread-Core/transplant_ports/pt_ports.c:76
    }
    SysTick->CNTFG &= ~0x00000002;
200038ec:	e000f737          	lui	a4,0xe000f
200038f0:	4b5c                	lw	a5,20(a4)
F:\文档\串口助手\ProtoThread\ProtoThread-Templates-main\CH573_PT_Template\obj/../OS/ProtoThread-Core/transplant_ports/pt_ports.c:78
  }
}
200038f2:	4432                	lw	s0,12(sp)
F:\文档\串口助手\ProtoThread\ProtoThread-Templates-main\CH573_PT_Template\obj/../OS/ProtoThread-Core/transplant_ports/pt_ports.c:76
    SysTick->CNTFG &= ~0x00000002;
200038f4:	9bf5                	andi	a5,a5,-3
200038f6:	cb5c                	sw	a5,20(a4)
F:\文档\串口助手\ProtoThread\ProtoThread-Templates-main\CH573_PT_Template\obj/../OS/ProtoThread-Core/transplant_ports/pt_ports.c:78
}
200038f8:	0141                	addi	sp,sp,16
200038fa:	30200073          	mret
200038fe:	30200073          	mret

20003902 <etimer_request_poll>:
etimer_request_poll():
F:\文档\串口助手\ProtoThread\ProtoThread-Templates-main\CH573_PT_Template\obj/../OS/ProtoThread-Core/sys/etimer.c:147
}
/*---------------------------------------------------------------------------*/
__attribute__((section(".highcode"))) void
etimer_request_poll(void)
{
  process_poll(&etimer_process);
20003902:	00000517          	auipc	a0,0x0
20003906:	77a50513          	addi	a0,a0,1914 # 2000407c <_highcode_vma_end>
2000390a:	aafd                	j	20003b08 <process_poll>

2000390c <etimer_pending>:
etimer_pending():
F:\文档\串口助手\ProtoThread\ProtoThread-Templates-main\CH573_PT_Template\obj/../OS/ProtoThread-Core/sys/etimer.c:233
}
/*---------------------------------------------------------------------------*/
__attribute__((section(".highcode"))) int
etimer_pending(void)
{
  return timerlist != NULL;
2000390c:	81c18793          	addi	a5,gp,-2020 # 20004104 <timerlist>
20003910:	4388                	lw	a0,0(a5)
F:\文档\串口助手\ProtoThread\ProtoThread-Templates-main\CH573_PT_Template\obj/../OS/ProtoThread-Core/sys/etimer.c:234
}
20003912:	00a03533          	snez	a0,a0
20003916:	8082                	ret

20003918 <etimer_next_expiration_time>:
etimer_next_expiration_time():
F:\文档\串口助手\ProtoThread\ProtoThread-Templates-main\CH573_PT_Template\obj/../OS/ProtoThread-Core/sys/etimer.c:238
/*---------------------------------------------------------------------------*/
__attribute__((section(".highcode"))) clock_time_t
etimer_next_expiration_time(void)
{
20003918:	1141                	addi	sp,sp,-16
2000391a:	c606                	sw	ra,12(sp)
F:\文档\串口助手\ProtoThread\ProtoThread-Templates-main\CH573_PT_Template\obj/../OS/ProtoThread-Core/sys/etimer.c:239
  return etimer_pending() ? next_expiration : 0;
2000391c:	3fc5                	jal	2000390c <etimer_pending>
2000391e:	4781                	li	a5,0
20003920:	c501                	beqz	a0,20003928 <etimer_next_expiration_time+0x10>
F:\文档\串口助手\ProtoThread\ProtoThread-Templates-main\CH573_PT_Template\obj/../OS/ProtoThread-Core/sys/etimer.c:239 (discriminator 1)
20003922:	81818793          	addi	a5,gp,-2024 # 20004100 <next_expiration>
20003926:	439c                	lw	a5,0(a5)
F:\文档\串口助手\ProtoThread\ProtoThread-Templates-main\CH573_PT_Template\obj/../OS/ProtoThread-Core/sys/etimer.c:240
}
20003928:	40b2                	lw	ra,12(sp)
2000392a:	853e                	mv	a0,a5
2000392c:	0141                	addi	sp,sp,16
2000392e:	8082                	ret

20003930 <call_process>:
call_process():
F:\文档\串口助手\ProtoThread\ProtoThread-Templates-main\CH573_PT_Template\obj/../OS/ProtoThread-Core/sys/process.c:181
  if(p->state == PROCESS_STATE_CALLED) {
    printf("process: process '%s' called again with event %d\n", PROCESS_NAME_STRING(p), ev);
  }
#endif /* PT_DEBUG */

  if((p->state & PROCESS_STATE_RUNNING) &&
20003930:	00a54783          	lbu	a5,10(a0)
20003934:	8b85                	andi	a5,a5,1
20003936:	c7b1                	beqz	a5,20003982 <call_process+0x52>
F:\文档\串口助手\ProtoThread\ProtoThread-Templates-main\CH573_PT_Template\obj/../OS/ProtoThread-Core/sys/process.c:182 (discriminator 1)
     p->thread != NULL) {
20003938:	415c                	lw	a5,4(a0)
F:\文档\串口助手\ProtoThread\ProtoThread-Templates-main\CH573_PT_Template\obj/../OS/ProtoThread-Core/sys/process.c:181 (discriminator 1)
  if((p->state & PROCESS_STATE_RUNNING) &&
2000393a:	c7a1                	beqz	a5,20003982 <call_process+0x52>
F:\文档\串口助手\ProtoThread\ProtoThread-Templates-main\CH573_PT_Template\obj/../OS/ProtoThread-Core/sys/process.c:172
{
2000393c:	1141                	addi	sp,sp,-16
F:\文档\串口助手\ProtoThread\ProtoThread-Templates-main\CH573_PT_Template\obj/../OS/ProtoThread-Core/sys/process.c:184
    PRINTF("process: calling process '%s' with event %d\n", PROCESS_NAME_STRING(p), ev);
    process_current = p;
2000393e:	82a1a223          	sw	a0,-2012(gp) # 2000410c <process_current>
F:\文档\串口助手\ProtoThread\ProtoThread-Templates-main\CH573_PT_Template\obj/../OS/ProtoThread-Core/sys/process.c:172
{
20003942:	c422                	sw	s0,8(sp)
20003944:	c226                	sw	s1,4(sp)
20003946:	c606                	sw	ra,12(sp)
F:\文档\串口助手\ProtoThread\ProtoThread-Templates-main\CH573_PT_Template\obj/../OS/ProtoThread-Core/sys/process.c:185
    p->state = PROCESS_STATE_CALLED;
20003948:	4709                	li	a4,2
2000394a:	00e50523          	sb	a4,10(a0)
2000394e:	842a                	mv	s0,a0
F:\文档\串口助手\ProtoThread\ProtoThread-Templates-main\CH573_PT_Template\obj/../OS/ProtoThread-Core/sys/process.c:186
    ret = p->thread(&p->pt, ev, data);
20003950:	0521                	addi	a0,a0,8
20003952:	84ae                	mv	s1,a1
20003954:	9782                	jalr	a5
F:\文档\串口助手\ProtoThread\ProtoThread-Templates-main\CH573_PT_Template\obj/../OS/ProtoThread-Core/sys/process.c:187
    if(ret == PT_EXITED ||
20003956:	1579                	addi	a0,a0,-2
20003958:	4785                	li	a5,1
2000395a:	00a7f663          	bgeu	a5,a0,20003966 <call_process+0x36>
F:\文档\串口助手\ProtoThread\ProtoThread-Templates-main\CH573_PT_Template\obj/../OS/ProtoThread-Core/sys/process.c:188
       ret == PT_ENDED ||
2000395e:	08300713          	li	a4,131
20003962:	00e49963          	bne	s1,a4,20003974 <call_process+0x44>
F:\文档\串口助手\ProtoThread\ProtoThread-Templates-main\CH573_PT_Template\obj/../OS/ProtoThread-Core/sys/process.c:190
       ev == PROCESS_EVENT_EXIT) {
      exit_process(p, p);
20003966:	85a2                	mv	a1,s0
20003968:	8522                	mv	a0,s0
F:\文档\串口助手\ProtoThread\ProtoThread-Templates-main\CH573_PT_Template\obj/../OS/ProtoThread-Core/sys/process.c:195
    } else {
      p->state = PROCESS_STATE_RUNNING;
    }
  }
}
2000396a:	4422                	lw	s0,8(sp)
2000396c:	40b2                	lw	ra,12(sp)
2000396e:	4492                	lw	s1,4(sp)
20003970:	0141                	addi	sp,sp,16
F:\文档\串口助手\ProtoThread\ProtoThread-Templates-main\CH573_PT_Template\obj/../OS/ProtoThread-Core/sys/process.c:190
      exit_process(p, p);
20003972:	a809                	j	20003984 <exit_process>
F:\文档\串口助手\ProtoThread\ProtoThread-Templates-main\CH573_PT_Template\obj/../OS/ProtoThread-Core/sys/process.c:192
      p->state = PROCESS_STATE_RUNNING;
20003974:	00f40523          	sb	a5,10(s0)
F:\文档\串口助手\ProtoThread\ProtoThread-Templates-main\CH573_PT_Template\obj/../OS/ProtoThread-Core/sys/process.c:195
}
20003978:	40b2                	lw	ra,12(sp)
2000397a:	4422                	lw	s0,8(sp)
2000397c:	4492                	lw	s1,4(sp)
2000397e:	0141                	addi	sp,sp,16
20003980:	8082                	ret
20003982:	8082                	ret

20003984 <exit_process>:
exit_process():
F:\文档\串口助手\ProtoThread\ProtoThread-Templates-main\CH573_PT_Template\obj/../OS/ProtoThread-Core/sys/process.c:121
{
20003984:	1101                	addi	sp,sp,-32
F:\文档\串口助手\ProtoThread\ProtoThread-Templates-main\CH573_PT_Template\obj/../OS/ProtoThread-Core/sys/process.c:129
  for(q = process_list; q != p && q != NULL; q = q->next);
20003986:	82818793          	addi	a5,gp,-2008 # 20004110 <process_list>
F:\文档\串口助手\ProtoThread\ProtoThread-Templates-main\CH573_PT_Template\obj/../OS/ProtoThread-Core/sys/process.c:121
{
2000398a:	ca26                	sw	s1,20(sp)
F:\文档\串口助手\ProtoThread\ProtoThread-Templates-main\CH573_PT_Template\obj/../OS/ProtoThread-Core/sys/process.c:129
  for(q = process_list; q != p && q != NULL; q = q->next);
2000398c:	4384                	lw	s1,0(a5)
F:\文档\串口助手\ProtoThread\ProtoThread-Templates-main\CH573_PT_Template\obj/../OS/ProtoThread-Core/sys/process.c:121
{
2000398e:	c84a                	sw	s2,16(sp)
20003990:	ce06                	sw	ra,28(sp)
20003992:	cc22                	sw	s0,24(sp)
20003994:	c64e                	sw	s3,12(sp)
20003996:	c452                	sw	s4,8(sp)
F:\文档\串口助手\ProtoThread\ProtoThread-Templates-main\CH573_PT_Template\obj/../OS/ProtoThread-Core/sys/process.c:129
  for(q = process_list; q != p && q != NULL; q = q->next);
20003998:	8726                	mv	a4,s1
2000399a:	893e                	mv	s2,a5
F:\文档\串口助手\ProtoThread\ProtoThread-Templates-main\CH573_PT_Template\obj/../OS/ProtoThread-Core/sys/process.c:129 (discriminator 1)
2000399c:	00a70d63          	beq	a4,a0,200039b6 <exit_process+0x32>
F:\文档\串口助手\ProtoThread\ProtoThread-Templates-main\CH573_PT_Template\obj/../OS/ProtoThread-Core/sys/process.c:129 (discriminator 3)
200039a0:	eb09                	bnez	a4,200039b2 <exit_process+0x2e>
F:\文档\串口助手\ProtoThread\ProtoThread-Templates-main\CH573_PT_Template\obj/../OS/ProtoThread-Core/sys/process.c:168
}
200039a2:	40f2                	lw	ra,28(sp)
200039a4:	4462                	lw	s0,24(sp)
200039a6:	44d2                	lw	s1,20(sp)
200039a8:	4942                	lw	s2,16(sp)
200039aa:	49b2                	lw	s3,12(sp)
200039ac:	4a22                	lw	s4,8(sp)
200039ae:	6105                	addi	sp,sp,32
200039b0:	8082                	ret
F:\文档\串口助手\ProtoThread\ProtoThread-Templates-main\CH573_PT_Template\obj/../OS/ProtoThread-Core/sys/process.c:129 (discriminator 4)
  for(q = process_list; q != p && q != NULL; q = q->next);
200039b2:	4318                	lw	a4,0(a4)
200039b4:	b7e5                	j	2000399c <exit_process+0x18>
F:\文档\串口助手\ProtoThread\ProtoThread-Templates-main\CH573_PT_Template\obj/../OS/ProtoThread-Core/sys/process.c:130
  if(q == NULL) {
200039b6:	d575                	beqz	a0,200039a2 <exit_process+0x1e>
F:\文档\串口助手\ProtoThread\ProtoThread-Templates-main\CH573_PT_Template\obj/../OS/ProtoThread-Core/sys/process.c:123
  struct process *old_current = process_current;
200039b8:	82418793          	addi	a5,gp,-2012 # 2000410c <process_current>
200039bc:	0007aa03          	lw	s4,0(a5) # e000f000 <_eusrstack+0xc0007000>
F:\文档\串口助手\ProtoThread\ProtoThread-Templates-main\CH573_PT_Template\obj/../OS/ProtoThread-Core/sys/process.c:134
  if(process_is_running(p)) {
200039c0:	00a54783          	lbu	a5,10(a0)
200039c4:	89ae                	mv	s3,a1
200039c6:	842a                	mv	s0,a0
200039c8:	c385                	beqz	a5,200039e8 <exit_process+0x64>
F:\文档\串口助手\ProtoThread\ProtoThread-Templates-main\CH573_PT_Template\obj/../OS/ProtoThread-Core/sys/process.c:136
    p->state = PROCESS_STATE_NONE;
200039ca:	00050523          	sb	zero,10(a0)
F:\文档\串口助手\ProtoThread\ProtoThread-Templates-main\CH573_PT_Template\obj/../OS/ProtoThread-Core/sys/process.c:143 (discriminator 1)
    for(q = process_list; q != NULL; q = q->next) {
200039ce:	e49d                	bnez	s1,200039fc <exit_process+0x78>
F:\文档\串口助手\ProtoThread\ProtoThread-Templates-main\CH573_PT_Template\obj/../OS/ProtoThread-Core/sys/process.c:149
    if(p->thread != NULL && p != fromprocess) {
200039d0:	405c                	lw	a5,4(s0)
200039d2:	cb99                	beqz	a5,200039e8 <exit_process+0x64>
F:\文档\串口助手\ProtoThread\ProtoThread-Templates-main\CH573_PT_Template\obj/../OS/ProtoThread-Core/sys/process.c:149 (discriminator 1)
200039d4:	01340a63          	beq	s0,s3,200039e8 <exit_process+0x64>
F:\文档\串口助手\ProtoThread\ProtoThread-Templates-main\CH573_PT_Template\obj/../OS/ProtoThread-Core/sys/process.c:151
      process_current = p;
200039d8:	8281a223          	sw	s0,-2012(gp) # 2000410c <process_current>
F:\文档\串口助手\ProtoThread\ProtoThread-Templates-main\CH573_PT_Template\obj/../OS/ProtoThread-Core/sys/process.c:152
      p->thread(&p->pt, PROCESS_EVENT_EXIT, NULL);
200039dc:	4601                	li	a2,0
200039de:	08300593          	li	a1,131
200039e2:	00840513          	addi	a0,s0,8
200039e6:	9782                	jalr	a5
F:\文档\串口助手\ProtoThread\ProtoThread-Templates-main\CH573_PT_Template\obj/../OS/ProtoThread-Core/sys/process.c:156
  if(p == process_list) {
200039e8:	00092783          	lw	a5,0(s2)
200039ec:	02879263          	bne	a5,s0,20003a10 <exit_process+0x8c>
F:\文档\串口助手\ProtoThread\ProtoThread-Templates-main\CH573_PT_Template\obj/../OS/ProtoThread-Core/sys/process.c:157
    process_list = process_list->next;
200039f0:	401c                	lw	a5,0(s0)
200039f2:	82f1a423          	sw	a5,-2008(gp) # 20004110 <process_list>
F:\文档\串口助手\ProtoThread\ProtoThread-Templates-main\CH573_PT_Template\obj/../OS/ProtoThread-Core/sys/process.c:167
  process_current = old_current;
200039f6:	8341a223          	sw	s4,-2012(gp) # 2000410c <process_current>
200039fa:	b765                	j	200039a2 <exit_process+0x1e>
F:\文档\串口助手\ProtoThread\ProtoThread-Templates-main\CH573_PT_Template\obj/../OS/ProtoThread-Core/sys/process.c:144
      if(p != q) {
200039fc:	00848763          	beq	s1,s0,20003a0a <exit_process+0x86>
F:\文档\串口助手\ProtoThread\ProtoThread-Templates-main\CH573_PT_Template\obj/../OS/ProtoThread-Core/sys/process.c:145
        call_process(q, PROCESS_EVENT_EXITED, (process_data_t)p);
20003a00:	8622                	mv	a2,s0
20003a02:	08700593          	li	a1,135
20003a06:	8526                	mv	a0,s1
20003a08:	3725                	jal	20003930 <call_process>
F:\文档\串口助手\ProtoThread\ProtoThread-Templates-main\CH573_PT_Template\obj/../OS/ProtoThread-Core/sys/process.c:143 (discriminator 2)
    for(q = process_list; q != NULL; q = q->next) {
20003a0a:	4084                	lw	s1,0(s1)
20003a0c:	b7c9                	j	200039ce <exit_process+0x4a>
20003a0e:	87ba                	mv	a5,a4
F:\文档\串口助手\ProtoThread\ProtoThread-Templates-main\CH573_PT_Template\obj/../OS/ProtoThread-Core/sys/process.c:159 (discriminator 1)
    for(q = process_list; q != NULL; q = q->next) {
20003a10:	d3fd                	beqz	a5,200039f6 <exit_process+0x72>
F:\文档\串口助手\ProtoThread\ProtoThread-Templates-main\CH573_PT_Template\obj/../OS/ProtoThread-Core/sys/process.c:160
      if(q->next == p) {
20003a12:	4398                	lw	a4,0(a5)
20003a14:	fe871de3          	bne	a4,s0,20003a0e <exit_process+0x8a>
F:\文档\串口助手\ProtoThread\ProtoThread-Templates-main\CH573_PT_Template\obj/../OS/ProtoThread-Core/sys/process.c:161
        q->next = p->next;
20003a18:	4018                	lw	a4,0(s0)
20003a1a:	c398                	sw	a4,0(a5)
F:\文档\串口助手\ProtoThread\ProtoThread-Templates-main\CH573_PT_Template\obj/../OS/ProtoThread-Core/sys/process.c:162
        break;
20003a1c:	bfe9                	j	200039f6 <exit_process+0x72>

20003a1e <do_poll>:
do_poll():
F:\文档\串口助手\ProtoThread\ProtoThread-Templates-main\CH573_PT_Template\obj/../OS/ProtoThread-Core/sys/process.c:222
__attribute__((section(".highcode"))) static void
do_poll(void)
{
  struct process *p;

  poll_requested = 0;
20003a1e:	82018123          	sb	zero,-2014(gp) # 2000410a <poll_requested>
F:\文档\串口助手\ProtoThread\ProtoThread-Templates-main\CH573_PT_Template\obj/../OS/ProtoThread-Core/sys/process.c:219
{
20003a22:	1141                	addi	sp,sp,-16
F:\文档\串口助手\ProtoThread\ProtoThread-Templates-main\CH573_PT_Template\obj/../OS/ProtoThread-Core/sys/process.c:224
  /* Call the processes that needs to be polled. */
  for(p = process_list; p != NULL; p = p->next) {
20003a24:	82818793          	addi	a5,gp,-2008 # 20004110 <process_list>
F:\文档\串口助手\ProtoThread\ProtoThread-Templates-main\CH573_PT_Template\obj/../OS/ProtoThread-Core/sys/process.c:219
{
20003a28:	c422                	sw	s0,8(sp)
F:\文档\串口助手\ProtoThread\ProtoThread-Templates-main\CH573_PT_Template\obj/../OS/ProtoThread-Core/sys/process.c:224
  for(p = process_list; p != NULL; p = p->next) {
20003a2a:	4380                	lw	s0,0(a5)
F:\文档\串口助手\ProtoThread\ProtoThread-Templates-main\CH573_PT_Template\obj/../OS/ProtoThread-Core/sys/process.c:219
{
20003a2c:	c226                	sw	s1,4(sp)
20003a2e:	c606                	sw	ra,12(sp)
F:\文档\串口助手\ProtoThread\ProtoThread-Templates-main\CH573_PT_Template\obj/../OS/ProtoThread-Core/sys/process.c:226
    if(p->needspoll) {
      p->state = PROCESS_STATE_RUNNING;
20003a30:	4485                	li	s1,1
F:\文档\串口助手\ProtoThread\ProtoThread-Templates-main\CH573_PT_Template\obj/../OS/ProtoThread-Core/sys/process.c:224 (discriminator 1)
  for(p = process_list; p != NULL; p = p->next) {
20003a32:	e411                	bnez	s0,20003a3e <do_poll+0x20>
F:\文档\串口助手\ProtoThread\ProtoThread-Templates-main\CH573_PT_Template\obj/../OS/ProtoThread-Core/sys/process.c:231
      p->needspoll = 0;
      call_process(p, PROCESS_EVENT_POLL, NULL);
    }
  }
}
20003a34:	40b2                	lw	ra,12(sp)
20003a36:	4422                	lw	s0,8(sp)
20003a38:	4492                	lw	s1,4(sp)
20003a3a:	0141                	addi	sp,sp,16
20003a3c:	8082                	ret
F:\文档\串口助手\ProtoThread\ProtoThread-Templates-main\CH573_PT_Template\obj/../OS/ProtoThread-Core/sys/process.c:225
    if(p->needspoll) {
20003a3e:	00b44783          	lbu	a5,11(s0)
20003a42:	cb81                	beqz	a5,20003a52 <do_poll+0x34>
F:\文档\串口助手\ProtoThread\ProtoThread-Templates-main\CH573_PT_Template\obj/../OS/ProtoThread-Core/sys/process.c:226
      p->state = PROCESS_STATE_RUNNING;
20003a44:	00941523          	sh	s1,10(s0)
F:\文档\串口助手\ProtoThread\ProtoThread-Templates-main\CH573_PT_Template\obj/../OS/ProtoThread-Core/sys/process.c:228
      call_process(p, PROCESS_EVENT_POLL, NULL);
20003a48:	4601                	li	a2,0
20003a4a:	08200593          	li	a1,130
20003a4e:	8522                	mv	a0,s0
20003a50:	35c5                	jal	20003930 <call_process>
F:\文档\串口助手\ProtoThread\ProtoThread-Templates-main\CH573_PT_Template\obj/../OS/ProtoThread-Core/sys/process.c:224 (discriminator 2)
  for(p = process_list; p != NULL; p = p->next) {
20003a52:	4000                	lw	s0,0(s0)
20003a54:	bff9                	j	20003a32 <do_poll+0x14>

20003a56 <do_event>:
do_event():
F:\文档\串口助手\ProtoThread\ProtoThread-Templates-main\CH573_PT_Template\obj/../OS/ProtoThread-Core/sys/process.c:254
   * delivered to any of them. If so, we call the event handler
   * function for the process. We only process one event at a time and
   * call the poll handlers inbetween.
   */

  if(nevents > 0) {
20003a56:	8211c683          	lbu	a3,-2015(gp) # 20004109 <nevents>
20003a5a:	c6c9                	beqz	a3,20003ae4 <do_event+0x8e>
F:\文档\串口助手\ProtoThread\ProtoThread-Templates-main\CH573_PT_Template\obj/../OS/ProtoThread-Core/sys/process.c:257

    /* There are events that we should deliver. */
    ev = events[fevent].ev;
20003a5c:	8201c783          	lbu	a5,-2016(gp) # 20004108 <fevent>
20003a60:	4731                	li	a4,12
20003a62:	02e78633          	mul	a2,a5,a4
20003a66:	8a018713          	addi	a4,gp,-1888 # 20004188 <events>
F:\文档\串口助手\ProtoThread\ProtoThread-Templates-main\CH573_PT_Template\obj/../OS/ProtoThread-Core/sys/process.c:240
{
20003a6a:	1101                	addi	sp,sp,-32
F:\文档\串口助手\ProtoThread\ProtoThread-Templates-main\CH573_PT_Template\obj/../OS/ProtoThread-Core/sys/process.c:264
    data = events[fevent].data;
    receiver = events[fevent].p;

    /* Since we have seen the new event, we move pointer upwards
       and decrease the number of events. */
    fevent = (fevent + 1) % PROCESS_CONF_NUMEVENTS;
20003a6c:	0785                	addi	a5,a5,1
F:\文档\串口助手\ProtoThread\ProtoThread-Templates-main\CH573_PT_Template\obj/../OS/ProtoThread-Core/sys/process.c:240
{
20003a6e:	c84a                	sw	s2,16(sp)
F:\文档\串口助手\ProtoThread\ProtoThread-Templates-main\CH573_PT_Template\obj/../OS/ProtoThread-Core/sys/process.c:264
    fevent = (fevent + 1) % PROCESS_CONF_NUMEVENTS;
20003a70:	8bfd                	andi	a5,a5,31
F:\文档\串口助手\ProtoThread\ProtoThread-Templates-main\CH573_PT_Template\obj/../OS/ProtoThread-Core/sys/process.c:240
{
20003a72:	ce06                	sw	ra,28(sp)
20003a74:	cc22                	sw	s0,24(sp)
20003a76:	ca26                	sw	s1,20(sp)
20003a78:	c64e                	sw	s3,12(sp)
F:\文档\串口助手\ProtoThread\ProtoThread-Templates-main\CH573_PT_Template\obj/../OS/ProtoThread-Core/sys/process.c:257
    ev = events[fevent].ev;
20003a7a:	9732                	add	a4,a4,a2
F:\文档\串口助手\ProtoThread\ProtoThread-Templates-main\CH573_PT_Template\obj/../OS/ProtoThread-Core/sys/process.c:260
    receiver = events[fevent].p;
20003a7c:	4708                	lw	a0,8(a4)
F:\文档\串口助手\ProtoThread\ProtoThread-Templates-main\CH573_PT_Template\obj/../OS/ProtoThread-Core/sys/process.c:265
    --nevents;
20003a7e:	16fd                	addi	a3,a3,-1
F:\文档\串口助手\ProtoThread\ProtoThread-Templates-main\CH573_PT_Template\obj/../OS/ProtoThread-Core/sys/process.c:257
    ev = events[fevent].ev;
20003a80:	00074483          	lbu	s1,0(a4) # e000f000 <_eusrstack+0xc0007000>
F:\文档\串口助手\ProtoThread\ProtoThread-Templates-main\CH573_PT_Template\obj/../OS/ProtoThread-Core/sys/process.c:259
    data = events[fevent].data;
20003a84:	00472903          	lw	s2,4(a4)
F:\文档\串口助手\ProtoThread\ProtoThread-Templates-main\CH573_PT_Template\obj/../OS/ProtoThread-Core/sys/process.c:264
    fevent = (fevent + 1) % PROCESS_CONF_NUMEVENTS;
20003a88:	82f18023          	sb	a5,-2016(gp) # 20004108 <fevent>
F:\文档\串口助手\ProtoThread\ProtoThread-Templates-main\CH573_PT_Template\obj/../OS/ProtoThread-Core/sys/process.c:265
    --nevents;
20003a8c:	82d180a3          	sb	a3,-2015(gp) # 20004109 <nevents>
F:\文档\串口助手\ProtoThread\ProtoThread-Templates-main\CH573_PT_Template\obj/../OS/ProtoThread-Core/sys/process.c:269

    /* If this is a broadcast event, we deliver it to all events, in
       order of their priority. */
    if(receiver == PROCESS_BROADCAST) {
20003a90:	e915                	bnez	a0,20003ac4 <do_event+0x6e>
F:\文档\串口助手\ProtoThread\ProtoThread-Templates-main\CH573_PT_Template\obj/../OS/ProtoThread-Core/sys/process.c:270
      for(p = process_list; p != NULL; p = p->next) {
20003a92:	82818793          	addi	a5,gp,-2008 # 20004110 <process_list>
20003a96:	4380                	lw	s0,0(a5)
F:\文档\串口助手\ProtoThread\ProtoThread-Templates-main\CH573_PT_Template\obj/../OS/ProtoThread-Core/sys/process.c:274

        /* If we have been requested to poll a process, we do this in
           between processing the broadcast event. */
        if(poll_requested) {
20003a98:	82218993          	addi	s3,gp,-2014 # 2000410a <poll_requested>
F:\文档\串口助手\ProtoThread\ProtoThread-Templates-main\CH573_PT_Template\obj/../OS/ProtoThread-Core/sys/process.c:270 (discriminator 1)
      for(p = process_list; p != NULL; p = p->next) {
20003a9c:	e801                	bnez	s0,20003aac <do_event+0x56>
F:\文档\串口助手\ProtoThread\ProtoThread-Templates-main\CH573_PT_Template\obj/../OS/ProtoThread-Core/sys/process.c:292

      /* Make sure that the process actually is running. */
      call_process(receiver, ev, data);
    }
  }
}
20003a9e:	40f2                	lw	ra,28(sp)
20003aa0:	4462                	lw	s0,24(sp)
20003aa2:	44d2                	lw	s1,20(sp)
20003aa4:	4942                	lw	s2,16(sp)
20003aa6:	49b2                	lw	s3,12(sp)
20003aa8:	6105                	addi	sp,sp,32
20003aaa:	8082                	ret
F:\文档\串口助手\ProtoThread\ProtoThread-Templates-main\CH573_PT_Template\obj/../OS/ProtoThread-Core/sys/process.c:274
        if(poll_requested) {
20003aac:	0009c783          	lbu	a5,0(s3)
20003ab0:	0ff7f793          	andi	a5,a5,255
20003ab4:	c391                	beqz	a5,20003ab8 <do_event+0x62>
F:\文档\串口助手\ProtoThread\ProtoThread-Templates-main\CH573_PT_Template\obj/../OS/ProtoThread-Core/sys/process.c:275
          do_poll();
20003ab6:	37a5                	jal	20003a1e <do_poll>
F:\文档\串口助手\ProtoThread\ProtoThread-Templates-main\CH573_PT_Template\obj/../OS/ProtoThread-Core/sys/process.c:277 (discriminator 2)
        call_process(p, ev, data);
20003ab8:	8522                	mv	a0,s0
20003aba:	864a                	mv	a2,s2
20003abc:	85a6                	mv	a1,s1
20003abe:	3d8d                	jal	20003930 <call_process>
F:\文档\串口助手\ProtoThread\ProtoThread-Templates-main\CH573_PT_Template\obj/../OS/ProtoThread-Core/sys/process.c:270 (discriminator 2)
      for(p = process_list; p != NULL; p = p->next) {
20003ac0:	4000                	lw	s0,0(s0)
20003ac2:	bfe9                	j	20003a9c <do_event+0x46>
F:\文档\串口助手\ProtoThread\ProtoThread-Templates-main\CH573_PT_Template\obj/../OS/ProtoThread-Core/sys/process.c:284
      if(ev == PROCESS_EVENT_INIT) {
20003ac4:	08100793          	li	a5,129
20003ac8:	00f49563          	bne	s1,a5,20003ad2 <do_event+0x7c>
F:\文档\串口助手\ProtoThread\ProtoThread-Templates-main\CH573_PT_Template\obj/../OS/ProtoThread-Core/sys/process.c:285
        receiver->state = PROCESS_STATE_RUNNING;
20003acc:	4785                	li	a5,1
20003ace:	00f50523          	sb	a5,10(a0)
F:\文档\串口助手\ProtoThread\ProtoThread-Templates-main\CH573_PT_Template\obj/../OS/ProtoThread-Core/sys/process.c:292
}
20003ad2:	4462                	lw	s0,24(sp)
20003ad4:	40f2                	lw	ra,28(sp)
20003ad6:	49b2                	lw	s3,12(sp)
F:\文档\串口助手\ProtoThread\ProtoThread-Templates-main\CH573_PT_Template\obj/../OS/ProtoThread-Core/sys/process.c:289
      call_process(receiver, ev, data);
20003ad8:	864a                	mv	a2,s2
20003ada:	85a6                	mv	a1,s1
F:\文档\串口助手\ProtoThread\ProtoThread-Templates-main\CH573_PT_Template\obj/../OS/ProtoThread-Core/sys/process.c:292
}
20003adc:	4942                	lw	s2,16(sp)
20003ade:	44d2                	lw	s1,20(sp)
20003ae0:	6105                	addi	sp,sp,32
F:\文档\串口助手\ProtoThread\ProtoThread-Templates-main\CH573_PT_Template\obj/../OS/ProtoThread-Core/sys/process.c:289
      call_process(receiver, ev, data);
20003ae2:	b5b9                	j	20003930 <call_process>
20003ae4:	8082                	ret

20003ae6 <process_run>:
process_run():
F:\文档\串口助手\ProtoThread\ProtoThread-Templates-main\CH573_PT_Template\obj/../OS/ProtoThread-Core/sys/process.c:296
/*---------------------------------------------------------------------------*/
__attribute__((section(".highcode"))) int
process_run(void)
{
20003ae6:	1141                	addi	sp,sp,-16
20003ae8:	c606                	sw	ra,12(sp)
F:\文档\串口助手\ProtoThread\ProtoThread-Templates-main\CH573_PT_Template\obj/../OS/ProtoThread-Core/sys/process.c:298
  /* Process poll events. */
  if(poll_requested) {
20003aea:	8221c783          	lbu	a5,-2014(gp) # 2000410a <poll_requested>
20003aee:	c391                	beqz	a5,20003af2 <process_run+0xc>
F:\文档\串口助手\ProtoThread\ProtoThread-Templates-main\CH573_PT_Template\obj/../OS/ProtoThread-Core/sys/process.c:299
    do_poll();
20003af0:	373d                	jal	20003a1e <do_poll>
F:\文档\串口助手\ProtoThread\ProtoThread-Templates-main\CH573_PT_Template\obj/../OS/ProtoThread-Core/sys/process.c:303
  }

  /* Process one event from the queue */
  do_event();
20003af2:	3795                	jal	20003a56 <do_event>
F:\文档\串口助手\ProtoThread\ProtoThread-Templates-main\CH573_PT_Template\obj/../OS/ProtoThread-Core/sys/process.c:305

  return nevents + poll_requested;
20003af4:	82218793          	addi	a5,gp,-2014 # 2000410a <poll_requested>
20003af8:	0007c783          	lbu	a5,0(a5)
F:\文档\串口助手\ProtoThread\ProtoThread-Templates-main\CH573_PT_Template\obj/../OS/ProtoThread-Core/sys/process.c:306
}
20003afc:	40b2                	lw	ra,12(sp)
F:\文档\串口助手\ProtoThread\ProtoThread-Templates-main\CH573_PT_Template\obj/../OS/ProtoThread-Core/sys/process.c:305
  return nevents + poll_requested;
20003afe:	8211c503          	lbu	a0,-2015(gp) # 20004109 <nevents>
F:\文档\串口助手\ProtoThread\ProtoThread-Templates-main\CH573_PT_Template\obj/../OS/ProtoThread-Core/sys/process.c:306
}
20003b02:	953e                	add	a0,a0,a5
20003b04:	0141                	addi	sp,sp,16
20003b06:	8082                	ret

20003b08 <process_poll>:
process_poll():
F:\文档\串口助手\ProtoThread\ProtoThread-Templates-main\CH573_PT_Template\obj/../OS/ProtoThread-Core/sys/process.c:360
}
/*---------------------------------------------------------------------------*/
__attribute__((section(".highcode"))) void
process_poll(struct process *p)
{
  if(p != NULL) {
20003b08:	cd09                	beqz	a0,20003b22 <process_poll+0x1a>
F:\文档\串口助手\ProtoThread\ProtoThread-Templates-main\CH573_PT_Template\obj/../OS/ProtoThread-Core/sys/process.c:361
    if(p->state == PROCESS_STATE_RUNNING ||
20003b0a:	00a54783          	lbu	a5,10(a0)
20003b0e:	4705                	li	a4,1
20003b10:	17fd                	addi	a5,a5,-1
20003b12:	0ff7f793          	andi	a5,a5,255
20003b16:	00f76663          	bltu	a4,a5,20003b22 <process_poll+0x1a>
F:\文档\串口助手\ProtoThread\ProtoThread-Templates-main\CH573_PT_Template\obj/../OS/ProtoThread-Core/sys/process.c:363
       p->state == PROCESS_STATE_CALLED) {
      p->needspoll = 1;
20003b1a:	00e505a3          	sb	a4,11(a0)
F:\文档\串口助手\ProtoThread\ProtoThread-Templates-main\CH573_PT_Template\obj/../OS/ProtoThread-Core/sys/process.c:364
      poll_requested = 1;
20003b1e:	82e18123          	sb	a4,-2014(gp) # 2000410a <poll_requested>
F:\文档\串口助手\ProtoThread\ProtoThread-Templates-main\CH573_PT_Template\obj/../OS/ProtoThread-Core/sys/process.c:367
    }
  }
}
20003b22:	8082                	ret

20003b24 <SetSysClock>:
SetSysClock():
F:\文档\串口助手\ProtoThread\ProtoThread-Templates-main\CH573_PT_Template\obj/../Drivers/StdPeriphDriver/CH57x_sys.c:22
*******************************************************************************/
__attribute__((section(".highcode")))
void SetSysClock( SYS_CLKTypeDef sc)
{
  UINT32 i;
  R8_SAFE_ACCESS_SIG = SAFE_ACCESS_SIG1;
20003b24:	400017b7          	lui	a5,0x40001
20003b28:	05700693          	li	a3,87
20003b2c:	04d78023          	sb	a3,64(a5) # 40001040 <_eusrstack+0x1fff9040>
F:\文档\串口助手\ProtoThread\ProtoThread-Templates-main\CH573_PT_Template\obj/../Drivers/StdPeriphDriver/CH57x_sys.c:23
  R8_SAFE_ACCESS_SIG = SAFE_ACCESS_SIG2;
20003b30:	fa800713          	li	a4,-88
20003b34:	04e78023          	sb	a4,64(a5)
F:\文档\串口助手\ProtoThread\ProtoThread-Templates-main\CH573_PT_Template\obj/../Drivers/StdPeriphDriver/CH57x_sys.c:24
  R8_PLL_CONFIG &= ~(1<<5);   //
20003b38:	04b7c603          	lbu	a2,75(a5)
20003b3c:	0df67613          	andi	a2,a2,223
20003b40:	04c785a3          	sb	a2,75(a5)
F:\文档\串口助手\ProtoThread\ProtoThread-Templates-main\CH573_PT_Template\obj/../Drivers/StdPeriphDriver/CH57x_sys.c:25
  R8_SAFE_ACCESS_SIG = 0;
20003b44:	04078023          	sb	zero,64(a5)
F:\文档\串口助手\ProtoThread\ProtoThread-Templates-main\CH573_PT_Template\obj/../Drivers/StdPeriphDriver/CH57x_sys.c:26
  if ( sc & 0x20 ){    // HSE div
20003b48:	02057613          	andi	a2,a0,32
20003b4c:	c625                	beqz	a2,20003bb4 <SetSysClock+0x90>
F:\文档\串口助手\ProtoThread\ProtoThread-Templates-main\CH573_PT_Template\obj/../Drivers/StdPeriphDriver/CH57x_sys.c:27
    if ( !( R8_HFCK_PWR_CTRL & RB_CLK_XT32M_PON ) ){
20003b4e:	00a7c603          	lbu	a2,10(a5)
20003b52:	8a11                	andi	a2,a2,4
20003b54:	e20d                	bnez	a2,20003b76 <SetSysClock+0x52>
F:\文档\串口助手\ProtoThread\ProtoThread-Templates-main\CH573_PT_Template\obj/../Drivers/StdPeriphDriver/CH57x_sys.c:28
      R8_SAFE_ACCESS_SIG = SAFE_ACCESS_SIG1;
20003b56:	04d78023          	sb	a3,64(a5)
F:\文档\串口助手\ProtoThread\ProtoThread-Templates-main\CH573_PT_Template\obj/../Drivers/StdPeriphDriver/CH57x_sys.c:29
      R8_SAFE_ACCESS_SIG = SAFE_ACCESS_SIG2;
20003b5a:	04e78023          	sb	a4,64(a5)
F:\文档\串口助手\ProtoThread\ProtoThread-Templates-main\CH573_PT_Template\obj/../Drivers/StdPeriphDriver/CH57x_sys.c:30
      R8_HFCK_PWR_CTRL |= RB_CLK_XT32M_PON;    // HSE power on
20003b5e:	00a7c703          	lbu	a4,10(a5)
20003b62:	00476713          	ori	a4,a4,4
20003b66:	00e78523          	sb	a4,10(a5)
20003b6a:	4b000793          	li	a5,1200
F:\文档\串口助手\ProtoThread\ProtoThread-Templates-main\CH573_PT_Template\obj/../Drivers/StdPeriphDriver/CH57x_sys.c:31 (discriminator 3)
      for(i=0;i<1200;i++){  __nop();__nop();  }
20003b6e:	0001                	nop
20003b70:	0001                	nop
20003b72:	17fd                	addi	a5,a5,-1
20003b74:	ffed                	bnez	a5,20003b6e <SetSysClock+0x4a>
F:\文档\串口助手\ProtoThread\ProtoThread-Templates-main\CH573_PT_Template\obj/../Drivers/StdPeriphDriver/CH57x_sys.c:34
    }

    R8_SAFE_ACCESS_SIG = SAFE_ACCESS_SIG1;
20003b76:	400017b7          	lui	a5,0x40001
20003b7a:	05700693          	li	a3,87
20003b7e:	04d78023          	sb	a3,64(a5) # 40001040 <_eusrstack+0x1fff9040>
F:\文档\串口助手\ProtoThread\ProtoThread-Templates-main\CH573_PT_Template\obj/../Drivers/StdPeriphDriver/CH57x_sys.c:35
    R8_SAFE_ACCESS_SIG = SAFE_ACCESS_SIG2;
20003b82:	fa800713          	li	a4,-88
20003b86:	04e78023          	sb	a4,64(a5)
F:\文档\串口助手\ProtoThread\ProtoThread-Templates-main\CH573_PT_Template\obj/../Drivers/StdPeriphDriver/CH57x_sys.c:36
    R16_CLK_SYS_CFG = ( 0 << 6 ) | ( sc & 0x1f );
20003b8a:	897d                	andi	a0,a0,31
20003b8c:	00a79423          	sh	a0,8(a5)
F:\文档\串口助手\ProtoThread\ProtoThread-Templates-main\CH573_PT_Template\obj/../Drivers/StdPeriphDriver/CH57x_sys.c:37
    __nop();__nop();__nop();__nop();
20003b90:	0001                	nop
20003b92:	0001                	nop
20003b94:	0001                	nop
20003b96:	0001                	nop
F:\文档\串口助手\ProtoThread\ProtoThread-Templates-main\CH573_PT_Template\obj/../Drivers/StdPeriphDriver/CH57x_sys.c:38
    R8_SAFE_ACCESS_SIG = 0;
20003b98:	04078023          	sb	zero,64(a5)
F:\文档\串口助手\ProtoThread\ProtoThread-Templates-main\CH573_PT_Template\obj/../Drivers/StdPeriphDriver/CH57x_sys.c:39
    R8_SAFE_ACCESS_SIG = SAFE_ACCESS_SIG1;
20003b9c:	04d78023          	sb	a3,64(a5)
F:\文档\串口助手\ProtoThread\ProtoThread-Templates-main\CH573_PT_Template\obj/../Drivers/StdPeriphDriver/CH57x_sys.c:40
    R8_SAFE_ACCESS_SIG = SAFE_ACCESS_SIG2;
20003ba0:	04e78023          	sb	a4,64(a5)
F:\文档\串口助手\ProtoThread\ProtoThread-Templates-main\CH573_PT_Template\obj/../Drivers/StdPeriphDriver/CH57x_sys.c:41
    R8_FLASH_CFG = 0X01;
20003ba4:	4685                	li	a3,1
20003ba6:	40002737          	lui	a4,0x40002
F:\文档\串口助手\ProtoThread\ProtoThread-Templates-main\CH573_PT_Template\obj/../Drivers/StdPeriphDriver/CH57x_sys.c:59
    R16_CLK_SYS_CFG = ( 1 << 6 ) | ( sc & 0x1f );
    __nop();__nop();__nop();__nop();
    R8_SAFE_ACCESS_SIG = 0;
    R8_SAFE_ACCESS_SIG = SAFE_ACCESS_SIG1;
    R8_SAFE_ACCESS_SIG = SAFE_ACCESS_SIG2;
    R8_FLASH_CFG = 0X03;
20003baa:	80d703a3          	sb	a3,-2041(a4) # 40001807 <_eusrstack+0x1fff9807>
F:\文档\串口助手\ProtoThread\ProtoThread-Templates-main\CH573_PT_Template\obj/../Drivers/StdPeriphDriver/CH57x_sys.c:60
    R8_SAFE_ACCESS_SIG = 0;
20003bae:	04078023          	sb	zero,64(a5)
F:\文档\串口助手\ProtoThread\ProtoThread-Templates-main\CH573_PT_Template\obj/../Drivers/StdPeriphDriver/CH57x_sys.c:62
  }
}
20003bb2:	8082                	ret
F:\文档\串口助手\ProtoThread\ProtoThread-Templates-main\CH573_PT_Template\obj/../Drivers/StdPeriphDriver/CH57x_sys.c:45
  else if ( sc & 0x40 ){    // PLL div
20003bb4:	04057613          	andi	a2,a0,64
20003bb8:	de6d                	beqz	a2,20003bb2 <SetSysClock+0x8e>
F:\文档\串口助手\ProtoThread\ProtoThread-Templates-main\CH573_PT_Template\obj/../Drivers/StdPeriphDriver/CH57x_sys.c:46
    if ( !( R8_HFCK_PWR_CTRL & RB_CLK_PLL_PON ) ){
20003bba:	00a7c603          	lbu	a2,10(a5)
20003bbe:	8a41                	andi	a2,a2,16
20003bc0:	e20d                	bnez	a2,20003be2 <SetSysClock+0xbe>
F:\文档\串口助手\ProtoThread\ProtoThread-Templates-main\CH573_PT_Template\obj/../Drivers/StdPeriphDriver/CH57x_sys.c:47
        R8_SAFE_ACCESS_SIG = SAFE_ACCESS_SIG1;
20003bc2:	04d78023          	sb	a3,64(a5)
F:\文档\串口助手\ProtoThread\ProtoThread-Templates-main\CH573_PT_Template\obj/../Drivers/StdPeriphDriver/CH57x_sys.c:48
        R8_SAFE_ACCESS_SIG = SAFE_ACCESS_SIG2;
20003bc6:	04e78023          	sb	a4,64(a5)
F:\文档\串口助手\ProtoThread\ProtoThread-Templates-main\CH573_PT_Template\obj/../Drivers/StdPeriphDriver/CH57x_sys.c:49
        R8_HFCK_PWR_CTRL |= RB_CLK_PLL_PON;    // PLL power on
20003bca:	00a7c703          	lbu	a4,10(a5)
20003bce:	01076713          	ori	a4,a4,16
20003bd2:	00e78523          	sb	a4,10(a5)
20003bd6:	7d000793          	li	a5,2000
F:\文档\串口助手\ProtoThread\ProtoThread-Templates-main\CH573_PT_Template\obj/../Drivers/StdPeriphDriver/CH57x_sys.c:50 (discriminator 3)
        for(i=0;i<2000;i++){  __nop();__nop();  }
20003bda:	0001                	nop
20003bdc:	0001                	nop
20003bde:	17fd                	addi	a5,a5,-1
20003be0:	ffed                	bnez	a5,20003bda <SetSysClock+0xb6>
F:\文档\串口助手\ProtoThread\ProtoThread-Templates-main\CH573_PT_Template\obj/../Drivers/StdPeriphDriver/CH57x_sys.c:52
    R8_SAFE_ACCESS_SIG = SAFE_ACCESS_SIG1;
20003be2:	400017b7          	lui	a5,0x40001
20003be6:	05700693          	li	a3,87
20003bea:	04d78023          	sb	a3,64(a5) # 40001040 <_eusrstack+0x1fff9040>
F:\文档\串口助手\ProtoThread\ProtoThread-Templates-main\CH573_PT_Template\obj/../Drivers/StdPeriphDriver/CH57x_sys.c:53
    R8_SAFE_ACCESS_SIG = SAFE_ACCESS_SIG2;
20003bee:	fa800713          	li	a4,-88
F:\文档\串口助手\ProtoThread\ProtoThread-Templates-main\CH573_PT_Template\obj/../Drivers/StdPeriphDriver/CH57x_sys.c:54
    R16_CLK_SYS_CFG = ( 1 << 6 ) | ( sc & 0x1f );
20003bf2:	897d                	andi	a0,a0,31
F:\文档\串口助手\ProtoThread\ProtoThread-Templates-main\CH573_PT_Template\obj/../Drivers/StdPeriphDriver/CH57x_sys.c:53
    R8_SAFE_ACCESS_SIG = SAFE_ACCESS_SIG2;
20003bf4:	04e78023          	sb	a4,64(a5)
F:\文档\串口助手\ProtoThread\ProtoThread-Templates-main\CH573_PT_Template\obj/../Drivers/StdPeriphDriver/CH57x_sys.c:54
    R16_CLK_SYS_CFG = ( 1 << 6 ) | ( sc & 0x1f );
20003bf8:	04056513          	ori	a0,a0,64
20003bfc:	00a79423          	sh	a0,8(a5)
F:\文档\串口助手\ProtoThread\ProtoThread-Templates-main\CH573_PT_Template\obj/../Drivers/StdPeriphDriver/CH57x_sys.c:55
    __nop();__nop();__nop();__nop();
20003c00:	0001                	nop
20003c02:	0001                	nop
20003c04:	0001                	nop
20003c06:	0001                	nop
F:\文档\串口助手\ProtoThread\ProtoThread-Templates-main\CH573_PT_Template\obj/../Drivers/StdPeriphDriver/CH57x_sys.c:56
    R8_SAFE_ACCESS_SIG = 0;
20003c08:	04078023          	sb	zero,64(a5)
F:\文档\串口助手\ProtoThread\ProtoThread-Templates-main\CH573_PT_Template\obj/../Drivers/StdPeriphDriver/CH57x_sys.c:57
    R8_SAFE_ACCESS_SIG = SAFE_ACCESS_SIG1;
20003c0c:	04d78023          	sb	a3,64(a5)
F:\文档\串口助手\ProtoThread\ProtoThread-Templates-main\CH573_PT_Template\obj/../Drivers/StdPeriphDriver/CH57x_sys.c:58
    R8_SAFE_ACCESS_SIG = SAFE_ACCESS_SIG2;
20003c10:	04e78023          	sb	a4,64(a5)
F:\文档\串口助手\ProtoThread\ProtoThread-Templates-main\CH573_PT_Template\obj/../Drivers/StdPeriphDriver/CH57x_sys.c:59
    R8_FLASH_CFG = 0X03;
20003c14:	468d                	li	a3,3
20003c16:	40002737          	lui	a4,0x40002
20003c1a:	bf41                	j	20003baa <SetSysClock+0x86>

20003c1c <SYS_ResetExecute>:
SYS_ResetExecute():
F:\文档\串口助手\ProtoThread\ProtoThread-Templates-main\CH573_PT_Template\obj/../Drivers/StdPeriphDriver/CH57x_sys.c:110
* Input          : None
* Return         : None
*******************************************************************************/
__attribute__((section(".highcode")))
void SYS_ResetExecute( void )
{
20003c1c:	1141                	addi	sp,sp,-16
F:\文档\串口助手\ProtoThread\ProtoThread-Templates-main\CH573_PT_Template\obj/../Drivers/StdPeriphDriver/CH57x_sys.c:111
  FLASH_ROM_SW_RESET();
20003c1e:	4681                	li	a3,0
20003c20:	4601                	li	a2,0
20003c22:	4581                	li	a1,0
20003c24:	4501                	li	a0,0
F:\文档\串口助手\ProtoThread\ProtoThread-Templates-main\CH573_PT_Template\obj/../Drivers/StdPeriphDriver/CH57x_sys.c:110
{
20003c26:	c606                	sw	ra,12(sp)
F:\文档\串口助手\ProtoThread\ProtoThread-Templates-main\CH573_PT_Template\obj/../Drivers/StdPeriphDriver/CH57x_sys.c:111
  FLASH_ROM_SW_RESET();
20003c28:	2291                	jal	20003d6c <FLASH_EEPROM_CMD>
F:\文档\串口助手\ProtoThread\ProtoThread-Templates-main\CH573_PT_Template\obj/../Drivers/StdPeriphDriver/CH57x_sys.c:112
  R8_SAFE_ACCESS_SIG = SAFE_ACCESS_SIG1;
20003c2a:	400017b7          	lui	a5,0x40001
20003c2e:	05700713          	li	a4,87
20003c32:	04e78023          	sb	a4,64(a5) # 40001040 <_eusrstack+0x1fff9040>
F:\文档\串口助手\ProtoThread\ProtoThread-Templates-main\CH573_PT_Template\obj/../Drivers/StdPeriphDriver/CH57x_sys.c:113
  R8_SAFE_ACCESS_SIG = SAFE_ACCESS_SIG2;
20003c36:	fa800713          	li	a4,-88
20003c3a:	04e78023          	sb	a4,64(a5)
F:\文档\串口助手\ProtoThread\ProtoThread-Templates-main\CH573_PT_Template\obj/../Drivers/StdPeriphDriver/CH57x_sys.c:114
  R8_RST_WDOG_CTRL |= RB_SOFTWARE_RESET;
20003c3e:	0467c703          	lbu	a4,70(a5)
20003c42:	00176713          	ori	a4,a4,1
20003c46:	04e78323          	sb	a4,70(a5)
F:\文档\串口助手\ProtoThread\ProtoThread-Templates-main\CH573_PT_Template\obj/../Drivers/StdPeriphDriver/CH57x_sys.c:115
  R8_SAFE_ACCESS_SIG = 0;
20003c4a:	04078023          	sb	zero,64(a5)
F:\文档\串口助手\ProtoThread\ProtoThread-Templates-main\CH573_PT_Template\obj/../Drivers/StdPeriphDriver/CH57x_sys.c:116
}
20003c4e:	40b2                	lw	ra,12(sp)
20003c50:	0141                	addi	sp,sp,16
20003c52:	8082                	ret

20003c54 <HardFault_Handler>:
HardFault_Handler():
F:\文档\串口助手\ProtoThread\ProtoThread-Templates-main\CH573_PT_Template\obj/../Drivers/StdPeriphDriver/CH57x_sys.c:211
*******************************************************************************/
__attribute__((interrupt("WCH-Interrupt-fast")))
__attribute__((section(".highcode")))
void HardFault_Handler( void )
{
  PRINT("HardFault_Handler\n");
20003c54:	dfffe517          	auipc	a0,0xdfffe
20003c58:	d1850513          	addi	a0,a0,-744 # 196c <_sbrk+0x54>
20003c5c:	dfffd097          	auipc	ra,0xdfffd
20003c60:	286080e7          	jalr	646(ra) # ee2 <puts>
F:\文档\串口助手\ProtoThread\ProtoThread-Templates-main\CH573_PT_Template\obj/../Drivers/StdPeriphDriver/CH57x_sys.c:212 (discriminator 1)
  while(1);
20003c64:	a001                	j	20003c64 <HardFault_Handler+0x10>

20003c66 <mDelayuS>:
mDelayuS():
F:\文档\串口助手\ProtoThread\ProtoThread-Templates-main\CH573_PT_Template\obj/../Drivers/StdPeriphDriver/CH57x_sys.c:233
__attribute__((section(".highcode")))
void mDelayuS( UINT16 t )
{
    UINT32 i;
#if     (FREQ_SYS == 60000000)
    i = t*15;
20003c66:	47bd                	li	a5,15
20003c68:	02f50533          	mul	a0,a0,a5
F:\文档\串口助手\ProtoThread\ProtoThread-Templates-main\CH573_PT_Template\obj/../Drivers/StdPeriphDriver/CH57x_sys.c:255 (discriminator 1)
#elif	(FREQ_SYS == 1000000)
    i = t>>2;
#endif
    do
    {
    	__nop();
20003c6c:	0001                	nop
F:\文档\串口助手\ProtoThread\ProtoThread-Templates-main\CH573_PT_Template\obj/../Drivers/StdPeriphDriver/CH57x_sys.c:256 (discriminator 1)
    }while(--i);
20003c6e:	157d                	addi	a0,a0,-1
20003c70:	fd75                	bnez	a0,20003c6c <mDelayuS+0x6>
F:\文档\串口助手\ProtoThread\ProtoThread-Templates-main\CH573_PT_Template\obj/../Drivers/StdPeriphDriver/CH57x_sys.c:257
}
20003c72:	8082                	ret

20003c74 <mDelaymS>:
mDelaymS():
F:\文档\串口助手\ProtoThread\ProtoThread-Templates-main\CH573_PT_Template\obj/../Drivers/StdPeriphDriver/CH57x_sys.c:267
* Input          : t: 时间参数
* Return         : None
*******************************************************************************/
__attribute__((section(".highcode")))
void mDelaymS( UINT16 t )
{
20003c74:	1141                	addi	sp,sp,-16
20003c76:	c422                	sw	s0,8(sp)
20003c78:	c226                	sw	s1,4(sp)
20003c7a:	c606                	sw	ra,12(sp)
20003c7c:	84aa                	mv	s1,a0
F:\文档\串口助手\ProtoThread\ProtoThread-Templates-main\CH573_PT_Template\obj/../Drivers/StdPeriphDriver/CH57x_sys.c:270
    UINT16 i;

    for(i=0; i<t; i++)
20003c7e:	4401                	li	s0,0
F:\文档\串口助手\ProtoThread\ProtoThread-Templates-main\CH573_PT_Template\obj/../Drivers/StdPeriphDriver/CH57x_sys.c:270 (discriminator 1)
20003c80:	00941763          	bne	s0,s1,20003c8e <mDelaymS+0x1a>
F:\文档\串口助手\ProtoThread\ProtoThread-Templates-main\CH573_PT_Template\obj/../Drivers/StdPeriphDriver/CH57x_sys.c:272
        mDelayuS(1000);
}
20003c84:	40b2                	lw	ra,12(sp)
20003c86:	4422                	lw	s0,8(sp)
20003c88:	4492                	lw	s1,4(sp)
20003c8a:	0141                	addi	sp,sp,16
20003c8c:	8082                	ret
F:\文档\串口助手\ProtoThread\ProtoThread-Templates-main\CH573_PT_Template\obj/../Drivers/StdPeriphDriver/CH57x_sys.c:270 (discriminator 3)
    for(i=0; i<t; i++)
20003c8e:	0405                	addi	s0,s0,1
F:\文档\串口助手\ProtoThread\ProtoThread-Templates-main\CH573_PT_Template\obj/../Drivers/StdPeriphDriver/CH57x_sys.c:271 (discriminator 3)
        mDelayuS(1000);
20003c90:	3e800513          	li	a0,1000
F:\文档\串口助手\ProtoThread\ProtoThread-Templates-main\CH573_PT_Template\obj/../Drivers/StdPeriphDriver/CH57x_sys.c:270 (discriminator 3)
    for(i=0; i<t; i++)
20003c94:	0442                	slli	s0,s0,0x10
F:\文档\串口助手\ProtoThread\ProtoThread-Templates-main\CH573_PT_Template\obj/../Drivers/StdPeriphDriver/CH57x_sys.c:271 (discriminator 3)
        mDelayuS(1000);
20003c96:	3fc1                	jal	20003c66 <mDelayuS>
F:\文档\串口助手\ProtoThread\ProtoThread-Templates-main\CH573_PT_Template\obj/../Drivers/StdPeriphDriver/CH57x_sys.c:270 (discriminator 3)
    for(i=0; i<t; i++)
20003c98:	8041                	srli	s0,s0,0x10
20003c9a:	b7dd                	j	20003c80 <mDelaymS+0xc>

20003c9c <RTC_IRQHandler>:
RTC_IRQHandler():
F:\文档\串口助手\ProtoThread\ProtoThread-Templates-main\CH573_PT_Template\obj/../Drivers/BLE/HAL/RTC.c:60
 */
__attribute__((interrupt("WCH-Interrupt-fast")))
__attribute__((section(".highcode")))
void RTC_IRQHandler( void )
{
  R8_RTC_FLAG_CTRL = ( RB_RTC_TMR_CLR | RB_RTC_TRIG_CLR );
20003c9c:	400017b7          	lui	a5,0x40001
20003ca0:	03000713          	li	a4,48
20003ca4:	02e78823          	sb	a4,48(a5) # 40001030 <_eusrstack+0x1fff9030>
F:\文档\串口助手\ProtoThread\ProtoThread-Templates-main\CH573_PT_Template\obj/../Drivers/BLE/HAL/RTC.c:61
  RTCTigFlag = 1;
20003ca8:	4785                	li	a5,1
20003caa:	82f1a623          	sw	a5,-2004(gp) # 20004114 <RTCTigFlag>
F:\文档\串口助手\ProtoThread\ProtoThread-Templates-main\CH573_PT_Template\obj/../Drivers/BLE/HAL/RTC.c:62
}
20003cae:	30200073          	mret

20003cb2 <FLASH_ROM_BEG>:
FLASH_ROM_BEG():
20003cb2:	80040323          	sb	zero,-2042(s0)
20003cb6:	4795                	li	a5,5
20003cb8:	80f40323          	sb	a5,-2042(s0)
20003cbc:	80a40223          	sb	a0,-2044(s0)
20003cc0:	8082                	ret

20003cc2 <FLASH_ROM_END>:
FLASH_ROM_END():
20003cc2:	80640783          	lb	a5,-2042(s0)
20003cc6:	fe07cee3          	bltz	a5,20003cc2 <FLASH_ROM_END>
20003cca:	80040323          	sb	zero,-2042(s0)
20003cce:	8082                	ret

20003cd0 <FLASH_ROM_IN>:
FLASH_ROM_IN():
20003cd0:	80640783          	lb	a5,-2042(s0)
20003cd4:	fe07cee3          	bltz	a5,20003cd0 <FLASH_ROM_IN>
20003cd8:	80444503          	lbu	a0,-2044(s0)
20003cdc:	8082                	ret

20003cde <FLASH_ROM_OUT>:
FLASH_ROM_OUT():
20003cde:	80640783          	lb	a5,-2042(s0)
20003ce2:	fe07cee3          	bltz	a5,20003cde <FLASH_ROM_OUT>
20003ce6:	80a40223          	sb	a0,-2044(s0)
20003cea:	8082                	ret

20003cec <FLASH_ROM_ADDR>:
FLASH_ROM_ADDR():
20003cec:	1141                	addi	sp,sp,-16
20003cee:	c426                	sw	s1,8(sp)
20003cf0:	c24a                	sw	s2,4(sp)
20003cf2:	c04e                	sw	s3,0(sp)
20003cf4:	c606                	sw	ra,12(sp)
20003cf6:	0bf57713          	andi	a4,a0,191
20003cfa:	47ad                	li	a5,11
20003cfc:	89aa                	mv	s3,a0
20003cfe:	892e                	mv	s2,a1
20003d00:	4495                	li	s1,5
20003d02:	00f70663          	beq	a4,a5,20003d0e <FLASH_ROM_ADDR+0x22>
20003d06:	4519                	li	a0,6
20003d08:	376d                	jal	20003cb2 <FLASH_ROM_BEG>
20003d0a:	3f65                	jal	20003cc2 <FLASH_ROM_END>
20003d0c:	448d                	li	s1,3
20003d0e:	854e                	mv	a0,s3
20003d10:	374d                	jal	20003cb2 <FLASH_ROM_BEG>
20003d12:	59fd                	li	s3,-1
20003d14:	14fd                	addi	s1,s1,-1
20003d16:	01349863          	bne	s1,s3,20003d26 <FLASH_ROM_ADDR+0x3a>
20003d1a:	40b2                	lw	ra,12(sp)
20003d1c:	44a2                	lw	s1,8(sp)
20003d1e:	4912                	lw	s2,4(sp)
20003d20:	4982                	lw	s3,0(sp)
20003d22:	0141                	addi	sp,sp,16
20003d24:	8082                	ret
20003d26:	01095513          	srli	a0,s2,0x10
20003d2a:	0ff57513          	andi	a0,a0,255
20003d2e:	3f45                	jal	20003cde <FLASH_ROM_OUT>
20003d30:	0922                	slli	s2,s2,0x8
20003d32:	b7cd                	j	20003d14 <FLASH_ROM_ADDR+0x28>

20003d34 <FLASH_ROM_WAIT>:
FLASH_ROM_WAIT():
20003d34:	1101                	addi	sp,sp,-32
20003d36:	cc26                	sw	s1,24(sp)
20003d38:	ce06                	sw	ra,28(sp)
20003d3a:	000804b7          	lui	s1,0x80
20003d3e:	3751                	jal	20003cc2 <FLASH_ROM_END>
20003d40:	4515                	li	a0,5
20003d42:	3f85                	jal	20003cb2 <FLASH_ROM_BEG>
20003d44:	3771                	jal	20003cd0 <FLASH_ROM_IN>
20003d46:	3769                	jal	20003cd0 <FLASH_ROM_IN>
20003d48:	c62a                	sw	a0,12(sp)
20003d4a:	3fa5                	jal	20003cc2 <FLASH_ROM_END>
20003d4c:	4532                	lw	a0,12(sp)
20003d4e:	00157793          	andi	a5,a0,1
20003d52:	eb89                	bnez	a5,20003d64 <FLASH_ROM_WAIT+0x30>
20003d54:	00156513          	ori	a0,a0,1
20003d58:	0ff57513          	andi	a0,a0,255
20003d5c:	40f2                	lw	ra,28(sp)
20003d5e:	44e2                	lw	s1,24(sp)
20003d60:	6105                	addi	sp,sp,32
20003d62:	8082                	ret
20003d64:	14fd                	addi	s1,s1,-1
20003d66:	fce9                	bnez	s1,20003d40 <FLASH_ROM_WAIT+0xc>
20003d68:	4501                	li	a0,0
20003d6a:	bfcd                	j	20003d5c <FLASH_ROM_WAIT+0x28>

20003d6c <FLASH_EEPROM_CMD>:
FLASH_EEPROM_CMD():
20003d6c:	7139                	addi	sp,sp,-64
20003d6e:	dc26                	sw	s1,56(sp)
20003d70:	da4a                	sw	s2,52(sp)
20003d72:	d84e                	sw	s3,48(sp)
20003d74:	d652                	sw	s4,44(sp)
20003d76:	d456                	sw	s5,40(sp)
20003d78:	d25a                	sw	s6,36(sp)
20003d7a:	d05e                	sw	s7,32(sp)
20003d7c:	de06                	sw	ra,60(sp)
20003d7e:	ce62                	sw	s8,28(sp)
20003d80:	cc66                	sw	s9,24(sp)
20003d82:	e000e7b7          	lui	a5,0xe000e
20003d86:	577d                	li	a4,-1
20003d88:	0007aa83          	lw	s5,0(a5) # e000e000 <_eusrstack+0xc0006000>
20003d8c:	c622                	sw	s0,12(sp)
20003d8e:	0047aa03          	lw	s4,4(a5)
20003d92:	18e7a023          	sw	a4,384(a5)
20003d96:	18e7a223          	sw	a4,388(a5)
20003d9a:	400017b7          	lui	a5,0x40001
20003d9e:	05700713          	li	a4,87
20003da2:	04e78023          	sb	a4,64(a5) # 40001040 <_eusrstack+0x1fff9040>
20003da6:	fa800713          	li	a4,-88
20003daa:	04e78023          	sb	a4,64(a5)
20003dae:	0447c783          	lbu	a5,68(a5)
20003db2:	ff750b93          	addi	s7,a0,-9
20003db6:	84b6                	mv	s1,a3
20003db8:	07e2                	slli	a5,a5,0x18
20003dba:	0ffbfb93          	andi	s7,s7,255
20003dbe:	4685                	li	a3,1
20003dc0:	89aa                	mv	s3,a0
20003dc2:	8b2e                	mv	s6,a1
20003dc4:	8932                	mv	s2,a2
20003dc6:	40002437          	lui	s0,0x40002
20003dca:	87e1                	srai	a5,a5,0x18
20003dcc:	5701                	li	a4,-32
20003dce:	0176fa63          	bgeu	a3,s7,20003de2 <FLASH_EEPROM_CMD+0x76>
20003dd2:	00d50863          	beq	a0,a3,20003de2 <FLASH_EEPROM_CMD+0x76>
20003dd6:	4689                	li	a3,2
20003dd8:	02000713          	li	a4,32
20003ddc:	00d51363          	bne	a0,a3,20003de2 <FLASH_EEPROM_CMD+0x76>
20003de0:	5701                	li	a4,-32
20003de2:	8fd9                	or	a5,a5,a4
20003de4:	0ff7f793          	andi	a5,a5,255
20003de8:	40001cb7          	lui	s9,0x40001
20003dec:	04fc8223          	sb	a5,68(s9) # 40001044 <_eusrstack+0x1fff9044>
20003df0:	4711                	li	a4,4
20003df2:	80e40323          	sb	a4,-2042(s0) # 40001806 <_eusrstack+0x1fff9806>
20003df6:	0ff00513          	li	a0,255
20003dfa:	3d65                	jal	20003cb2 <FLASH_ROM_BEG>
20003dfc:	4c09                	li	s8,2
20003dfe:	35d1                	jal	20003cc2 <FLASH_ROM_END>
20003e00:	117c6963          	bltu	s8,s7,20003f12 <FLASH_EEPROM_CMD+0x1a6>
20003e04:	000707b7          	lui	a5,0x70
20003e08:	9b3e                	add	s6,s6,a5
20003e0a:	00078737          	lui	a4,0x78
20003e0e:	5579                	li	a0,-2
20003e10:	02eb7e63          	bgeu	s6,a4,20003e4c <FLASH_EEPROM_CMD+0xe0>
20003e14:	009b07b3          	add	a5,s6,s1
20003e18:	02f76a63          	bltu	a4,a5,20003e4c <FLASH_EEPROM_CMD+0xe0>
20003e1c:	47a9                	li	a5,10
20003e1e:	06f99963          	bne	s3,a5,20003e90 <FLASH_EEPROM_CMD+0x124>
20003e22:	e489                	bnez	s1,20003e2c <FLASH_EEPROM_CMD+0xc0>
20003e24:	4481                	li	s1,0
20003e26:	3d71                	jal	20003cc2 <FLASH_ROM_END>
20003e28:	8526                	mv	a0,s1
20003e2a:	a00d                	j	20003e4c <FLASH_EEPROM_CMD+0xe0>
20003e2c:	85da                	mv	a1,s6
20003e2e:	4509                	li	a0,2
20003e30:	3d75                	jal	20003cec <FLASH_ROM_ADDR>
20003e32:	0905                	addi	s2,s2,1
20003e34:	fff94503          	lbu	a0,-1(s2)
20003e38:	14fd                	addi	s1,s1,-1
20003e3a:	0b05                	addi	s6,s6,1
20003e3c:	354d                	jal	20003cde <FLASH_ROM_OUT>
20003e3e:	c481                	beqz	s1,20003e46 <FLASH_EEPROM_CMD+0xda>
20003e40:	0ffb7793          	andi	a5,s6,255
20003e44:	f7fd                	bnez	a5,20003e32 <FLASH_EEPROM_CMD+0xc6>
20003e46:	35fd                	jal	20003d34 <FLASH_ROM_WAIT>
20003e48:	fd69                	bnez	a0,20003e22 <FLASH_EEPROM_CMD+0xb6>
20003e4a:	557d                	li	a0,-1
20003e4c:	400017b7          	lui	a5,0x40001
20003e50:	05700713          	li	a4,87
20003e54:	04e78023          	sb	a4,64(a5) # 40001040 <_eusrstack+0x1fff9040>
20003e58:	fa800713          	li	a4,-88
20003e5c:	04e78023          	sb	a4,64(a5)
20003e60:	0447c703          	lbu	a4,68(a5)
20003e64:	8b41                	andi	a4,a4,16
20003e66:	04e78223          	sb	a4,68(a5)
20003e6a:	50f2                	lw	ra,60(sp)
20003e6c:	e000e7b7          	lui	a5,0xe000e
20003e70:	1157a023          	sw	s5,256(a5) # e000e100 <_eusrstack+0xc0006100>
20003e74:	1147a223          	sw	s4,260(a5)
20003e78:	54e2                	lw	s1,56(sp)
20003e7a:	4432                	lw	s0,12(sp)
20003e7c:	5952                	lw	s2,52(sp)
20003e7e:	59c2                	lw	s3,48(sp)
20003e80:	5a32                	lw	s4,44(sp)
20003e82:	5aa2                	lw	s5,40(sp)
20003e84:	5b12                	lw	s6,36(sp)
20003e86:	5b82                	lw	s7,32(sp)
20003e88:	4c72                	lw	s8,28(sp)
20003e8a:	4ce2                	lw	s9,24(sp)
20003e8c:	6121                	addi	sp,sp,64
20003e8e:	8082                	ret
20003e90:	47a5                	li	a5,9
20003e92:	06f99563          	bne	s3,a5,20003efc <FLASH_EEPROM_CMD+0x190>
20003e96:	6985                	lui	s3,0x1
20003e98:	0ff00913          	li	s2,255
20003e9c:	009906b3          	add	a3,s2,s1
20003ea0:	012b74b3          	and	s1,s6,s2
20003ea4:	94b6                	add	s1,s1,a3
20003ea6:	fff94913          	not	s2,s2
20003eaa:	009974b3          	and	s1,s2,s1
20003eae:	6b85                	lui	s7,0x1
20003eb0:	01697933          	and	s2,s2,s6
20003eb4:	6b41                	lui	s6,0x10
20003eb6:	fff98793          	addi	a5,s3,-1 # fff <__swsetup_r+0x4f>
20003eba:	0127f7b3          	and	a5,a5,s2
20003ebe:	e399                	bnez	a5,20003ec4 <FLASH_EEPROM_CMD+0x158>
20003ec0:	0134fc63          	bgeu	s1,s3,20003ed8 <FLASH_EEPROM_CMD+0x16c>
20003ec4:	0049d993          	srli	s3,s3,0x4
20003ec8:	47c1                	li	a5,16
20003eca:	ff37e6e3          	bltu	a5,s3,20003eb6 <FLASH_EEPROM_CMD+0x14a>
20003ece:	bf99                	j	20003e24 <FLASH_EEPROM_CMD+0xb8>
20003ed0:	6905                	lui	s2,0x1
20003ed2:	69c1                	lui	s3,0x10
20003ed4:	197d                	addi	s2,s2,-1
20003ed6:	b7d9                	j	20003e9c <FLASH_EEPROM_CMD+0x130>
20003ed8:	0d800513          	li	a0,216
20003edc:	01698863          	beq	s3,s6,20003eec <FLASH_EEPROM_CMD+0x180>
20003ee0:	02000513          	li	a0,32
20003ee4:	01798463          	beq	s3,s7,20003eec <FLASH_EEPROM_CMD+0x180>
20003ee8:	08100513          	li	a0,129
20003eec:	85ca                	mv	a1,s2
20003eee:	3bfd                	jal	20003cec <FLASH_ROM_ADDR>
20003ef0:	3591                	jal	20003d34 <FLASH_ROM_WAIT>
20003ef2:	dd21                	beqz	a0,20003e4a <FLASH_EEPROM_CMD+0xde>
20003ef4:	994e                	add	s2,s2,s3
20003ef6:	413484b3          	sub	s1,s1,s3
20003efa:	b7d9                	j	20003ec0 <FLASH_EEPROM_CMD+0x154>
20003efc:	85da                	mv	a1,s6
20003efe:	452d                	li	a0,11
20003f00:	33f5                	jal	20003cec <FLASH_ROM_ADDR>
20003f02:	94ca                	add	s1,s1,s2
20003f04:	f29900e3          	beq	s2,s1,20003e24 <FLASH_EEPROM_CMD+0xb8>
20003f08:	0905                	addi	s2,s2,1
20003f0a:	33d9                	jal	20003cd0 <FLASH_ROM_IN>
20003f0c:	fea90fa3          	sb	a0,-1(s2) # fff <__swsetup_r+0x4f>
20003f10:	bfd5                	j	20003f04 <FLASH_EEPROM_CMD+0x198>
20003f12:	fff98793          	addi	a5,s3,-1 # ffff <_data_lma+0xe61b>
20003f16:	0ff7f793          	andi	a5,a5,255
20003f1a:	08fc6c63          	bltu	s8,a5,20003fb2 <.loop400+0x54>
20003f1e:	045cc703          	lbu	a4,69(s9)
20003f22:	000807b7          	lui	a5,0x80
20003f26:	02077713          	andi	a4,a4,32
20003f2a:	e319                	bnez	a4,20003f30 <FLASH_EEPROM_CMD+0x1c4>
20003f2c:	000787b7          	lui	a5,0x78
20003f30:	5579                	li	a0,-2
20003f32:	f0fb7de3          	bgeu	s6,a5,20003e4c <FLASH_EEPROM_CMD+0xe0>
20003f36:	009b0733          	add	a4,s6,s1
20003f3a:	f0e7e9e3          	bltu	a5,a4,20003e4c <FLASH_EEPROM_CMD+0xe0>
20003f3e:	4789                	li	a5,2
20003f40:	04f99063          	bne	s3,a5,20003f80 <.loop400+0x22>
20003f44:	8089                	srli	s1,s1,0x2
20003f46:	49d5                	li	s3,21
20003f48:	ec048ee3          	beqz	s1,20003e24 <FLASH_EEPROM_CMD+0xb8>
20003f4c:	85da                	mv	a1,s6
20003f4e:	4509                	li	a0,2
20003f50:	3b71                	jal	20003cec <FLASH_ROM_ADDR>
20003f52:	0911                	addi	s2,s2,4
20003f54:	ffc92703          	lw	a4,-4(s2)
20003f58:	4791                	li	a5,4
20003f5a:	80e42023          	sw	a4,-2048(s0)

20003f5e <.loop400>:
20003f5e:	80640703          	lb	a4,-2042(s0)
20003f62:	fe074ee3          	bltz	a4,20003f5e <.loop400>
20003f66:	81340323          	sb	s3,-2042(s0)
20003f6a:	17fd                	addi	a5,a5,-1
20003f6c:	fbed                	bnez	a5,20003f5e <.loop400>
20003f6e:	14fd                	addi	s1,s1,-1
20003f70:	0b11                	addi	s6,s6,4
20003f72:	c481                	beqz	s1,20003f7a <.loop400+0x1c>
20003f74:	0ffb7793          	andi	a5,s6,255
20003f78:	ffe9                	bnez	a5,20003f52 <FLASH_EEPROM_CMD+0x1e6>
20003f7a:	3b6d                	jal	20003d34 <FLASH_ROM_WAIT>
20003f7c:	f571                	bnez	a0,20003f48 <FLASH_EEPROM_CMD+0x1dc>
20003f7e:	b5f1                	j	20003e4a <FLASH_EEPROM_CMD+0xde>
20003f80:	4785                	li	a5,1
20003f82:	f4f987e3          	beq	s3,a5,20003ed0 <FLASH_EEPROM_CMD+0x164>
20003f86:	85da                	mv	a1,s6
20003f88:	452d                	li	a0,11
20003f8a:	338d                	jal	20003cec <FLASH_ROM_ADDR>
20003f8c:	fff48993          	addi	s3,s1,-1 # 7ffff <_data_lma+0x7e61b>
20003f90:	e8048ae3          	beqz	s1,20003e24 <FLASH_EEPROM_CMD+0xb8>
20003f94:	3b35                	jal	20003cd0 <FLASH_ROM_IN>
20003f96:	0039f793          	andi	a5,s3,3
20003f9a:	eb91                	bnez	a5,20003fae <.loop400+0x50>
20003f9c:	80042683          	lw	a3,-2048(s0)
20003fa0:	00092703          	lw	a4,0(s2)
20003fa4:	00490793          	addi	a5,s2,4
20003fa8:	e6e69fe3          	bne	a3,a4,20003e26 <FLASH_EEPROM_CMD+0xba>
20003fac:	893e                	mv	s2,a5
20003fae:	84ce                	mv	s1,s3
20003fb0:	bff1                	j	20003f8c <.loop400+0x2e>
20003fb2:	47b5                	li	a5,13
20003fb4:	00f99663          	bne	s3,a5,20003fc0 <.loop400+0x62>
20003fb8:	0b900513          	li	a0,185
20003fbc:	39dd                	jal	20003cb2 <FLASH_ROM_BEG>
20003fbe:	b59d                	j	20003e24 <FLASH_EEPROM_CMD+0xb8>
20003fc0:	47b1                	li	a5,12
20003fc2:	0ab00513          	li	a0,171
20003fc6:	fef98be3          	beq	s3,a5,20003fbc <.loop400+0x5e>
20003fca:	4799                	li	a5,6
20003fcc:	02f99e63          	bne	s3,a5,20004008 <.loop400+0xaa>
20003fd0:	85da                	mv	a1,s6
20003fd2:	452d                	li	a0,11
20003fd4:	3b21                	jal	20003cec <FLASH_ROM_ADDR>
20003fd6:	4481                	li	s1,0
20003fd8:	4b8d                	li	s7,3
20003fda:	49a1                	li	s3,8
20003fdc:	39d5                	jal	20003cd0 <FLASH_ROM_IN>
20003fde:	01749663          	bne	s1,s7,20003fea <.loop400+0x8c>
20003fe2:	80042783          	lw	a5,-2048(s0)
20003fe6:	00f92023          	sw	a5,0(s2)
20003fea:	0485                	addi	s1,s1,1
20003fec:	ff3498e3          	bne	s1,s3,20003fdc <.loop400+0x7e>
20003ff0:	80042783          	lw	a5,-2048(s0)
20003ff4:	012b1713          	slli	a4,s6,0x12
20003ff8:	00075563          	bgez	a4,20004002 <.loop400+0xa4>
20003ffc:	00f91223          	sh	a5,4(s2)
20004000:	b515                	j	20003e24 <FLASH_EEPROM_CMD+0xb8>
20004002:	00f92223          	sw	a5,4(s2)
20004006:	bd39                	j	20003e24 <FLASH_EEPROM_CMD+0xb8>
20004008:	479d                	li	a5,7
2000400a:	02f99163          	bne	s3,a5,2000402c <.loop400+0xce>
2000400e:	4581                	li	a1,0
20004010:	04b00513          	li	a0,75
20004014:	39e1                	jal	20003cec <FLASH_ROM_ADDR>
20004016:	449d                	li	s1,7
20004018:	59fd                	li	s3,-1
2000401a:	395d                	jal	20003cd0 <FLASH_ROM_IN>
2000401c:	009907b3          	add	a5,s2,s1
20004020:	00a78023          	sb	a0,0(a5) # 78000 <_data_lma+0x7661c>
20004024:	14fd                	addi	s1,s1,-1
20004026:	ff349ae3          	bne	s1,s3,2000401a <.loop400+0xbc>
2000402a:	bbed                	j	20003e24 <FLASH_EEPROM_CMD+0xb8>
2000402c:	47a1                	li	a5,8
2000402e:	04f99263          	bne	s3,a5,20004072 <.loop400+0x114>
20004032:	3309                	jal	20003d34 <FLASH_ROM_WAIT>
20004034:	4481                	li	s1,0
20004036:	000b0d63          	beqz	s6,20004050 <.loop400+0xf2>
2000403a:	4785                	li	a5,1
2000403c:	04400493          	li	s1,68
20004040:	00fb0863          	beq	s6,a5,20004050 <.loop400+0xf2>
20004044:	05000493          	li	s1,80
20004048:	018b0463          	beq	s6,s8,20004050 <.loop400+0xf2>
2000404c:	03c00493          	li	s1,60
20004050:	07c57513          	andi	a0,a0,124
20004054:	dc9508e3          	beq	a0,s1,20003e24 <FLASH_EEPROM_CMD+0xb8>
20004058:	4519                	li	a0,6
2000405a:	39a1                	jal	20003cb2 <FLASH_ROM_BEG>
2000405c:	319d                	jal	20003cc2 <FLASH_ROM_END>
2000405e:	4505                	li	a0,1
20004060:	3989                	jal	20003cb2 <FLASH_ROM_BEG>
20004062:	8526                	mv	a0,s1
20004064:	39ad                	jal	20003cde <FLASH_ROM_OUT>
20004066:	4509                	li	a0,2
20004068:	399d                	jal	20003cde <FLASH_ROM_OUT>
2000406a:	31e9                	jal	20003d34 <FLASH_ROM_WAIT>
2000406c:	da051ce3          	bnez	a0,20003e24 <FLASH_EEPROM_CMD+0xb8>
20004070:	bbe9                	j	20003e4a <FLASH_EEPROM_CMD+0xde>
20004072:	da0989e3          	beqz	s3,20003e24 <FLASH_EEPROM_CMD+0xb8>
20004076:	54f1                	li	s1,-4
20004078:	b37d                	j	20003e26 <FLASH_EEPROM_CMD+0xba>
	...

Disassembly of section .text:

00000880 <handle_reset>:
handle_reset():
F:\文档\串口助手\ProtoThread\ProtoThread-Templates-main\CH573_PT_Template\obj/../Core/Startup/startup_CH573.S:112
	.weak	handle_reset
	.align	1
handle_reset:
.option push 
.option	norelax 
	la gp, __global_pointer$
     880:	20004197          	auipc	gp,0x20004
     884:	06818193          	addi	gp,gp,104 # 200048e8 <__global_pointer$>
F:\文档\串口助手\ProtoThread\ProtoThread-Templates-main\CH573_PT_Template\obj/../Core/Startup/startup_CH573.S:115
.option	pop 
1:
	la sp, _eusrstack 
     888:	20007117          	auipc	sp,0x20007
     88c:	77810113          	addi	sp,sp,1912 # 20008000 <_eusrstack>
F:\文档\串口助手\ProtoThread\ProtoThread-Templates-main\CH573_PT_Template\obj/../Core/Startup/startup_CH573.S:119

/* Load highcode code  section from flash to RAM */
2:
    la a0, _highcode_lma
     890:	00400513          	li	a0,4
F:\文档\串口助手\ProtoThread\ProtoThread-Templates-main\CH573_PT_Template\obj/../Core/Startup/startup_CH573.S:120
    la a1, _highcode_vma_start
     894:	20003597          	auipc	a1,0x20003
     898:	f6c58593          	addi	a1,a1,-148 # 20003800 <_highcode_vma_start>
F:\文档\串口助手\ProtoThread\ProtoThread-Templates-main\CH573_PT_Template\obj/../Core/Startup/startup_CH573.S:121
    la a2, _highcode_vma_end
     89c:	20003617          	auipc	a2,0x20003
     8a0:	7e060613          	addi	a2,a2,2016 # 2000407c <_highcode_vma_end>
F:\文档\串口助手\ProtoThread\ProtoThread-Templates-main\CH573_PT_Template\obj/../Core/Startup/startup_CH573.S:122
    bgeu a1, a2, 2f
     8a4:	00c5fa63          	bgeu	a1,a2,8b8 <handle_reset+0x38>
F:\文档\串口助手\ProtoThread\ProtoThread-Templates-main\CH573_PT_Template\obj/../Core/Startup/startup_CH573.S:124
1:
    lw t0, (a0)
     8a8:	00052283          	lw	t0,0(a0)
F:\文档\串口助手\ProtoThread\ProtoThread-Templates-main\CH573_PT_Template\obj/../Core/Startup/startup_CH573.S:125
    sw t0, (a1)
     8ac:	0055a023          	sw	t0,0(a1)
F:\文档\串口助手\ProtoThread\ProtoThread-Templates-main\CH573_PT_Template\obj/../Core/Startup/startup_CH573.S:126
    addi a0, a0, 4
     8b0:	0511                	addi	a0,a0,4
F:\文档\串口助手\ProtoThread\ProtoThread-Templates-main\CH573_PT_Template\obj/../Core/Startup/startup_CH573.S:127
    addi a1, a1, 4
     8b2:	0591                	addi	a1,a1,4
F:\文档\串口助手\ProtoThread\ProtoThread-Templates-main\CH573_PT_Template\obj/../Core/Startup/startup_CH573.S:128
    bltu a1, a2, 1b
     8b4:	fec5eae3          	bltu	a1,a2,8a8 <handle_reset+0x28>
F:\文档\串口助手\ProtoThread\ProtoThread-Templates-main\CH573_PT_Template\obj/../Core/Startup/startup_CH573.S:132

/* Load data section from flash to RAM */
2:
	la a0, _data_lma
     8b8:	00001517          	auipc	a0,0x1
     8bc:	12c50513          	addi	a0,a0,300 # 19e4 <_data_lma>
F:\文档\串口助手\ProtoThread\ProtoThread-Templates-main\CH573_PT_Template\obj/../Core/Startup/startup_CH573.S:133
	la a1, _data_vma
     8c0:	20003597          	auipc	a1,0x20003
     8c4:	7bc58593          	addi	a1,a1,1980 # 2000407c <_highcode_vma_end>
F:\文档\串口助手\ProtoThread\ProtoThread-Templates-main\CH573_PT_Template\obj/../Core/Startup/startup_CH573.S:134
	la a2, _edata
     8c8:	80818613          	addi	a2,gp,-2040 # 200040f0 <_edata>
F:\文档\串口助手\ProtoThread\ProtoThread-Templates-main\CH573_PT_Template\obj/../Core/Startup/startup_CH573.S:135
	bgeu a1, a2, 2f
     8cc:	00c5fa63          	bgeu	a1,a2,8e0 <handle_reset+0x60>
F:\文档\串口助手\ProtoThread\ProtoThread-Templates-main\CH573_PT_Template\obj/../Core/Startup/startup_CH573.S:137
1:
	lw t0, (a0)
     8d0:	00052283          	lw	t0,0(a0)
F:\文档\串口助手\ProtoThread\ProtoThread-Templates-main\CH573_PT_Template\obj/../Core/Startup/startup_CH573.S:138
	sw t0, (a1)
     8d4:	0055a023          	sw	t0,0(a1)
F:\文档\串口助手\ProtoThread\ProtoThread-Templates-main\CH573_PT_Template\obj/../Core/Startup/startup_CH573.S:139
	addi a0, a0, 4
     8d8:	0511                	addi	a0,a0,4
F:\文档\串口助手\ProtoThread\ProtoThread-Templates-main\CH573_PT_Template\obj/../Core/Startup/startup_CH573.S:140
	addi a1, a1, 4
     8da:	0591                	addi	a1,a1,4
F:\文档\串口助手\ProtoThread\ProtoThread-Templates-main\CH573_PT_Template\obj/../Core/Startup/startup_CH573.S:141
	bltu a1, a2, 1b
     8dc:	fec5eae3          	bltu	a1,a2,8d0 <handle_reset+0x50>
F:\文档\串口助手\ProtoThread\ProtoThread-Templates-main\CH573_PT_Template\obj/../Core/Startup/startup_CH573.S:144
2:
	/* clear bss section */
	la a0, _sbss
     8e0:	80818513          	addi	a0,gp,-2040 # 200040f0 <_edata>
F:\文档\串口助手\ProtoThread\ProtoThread-Templates-main\CH573_PT_Template\obj/../Core/Startup/startup_CH573.S:145
	la a1, _ebss
     8e4:	a2418593          	addi	a1,gp,-1500 # 2000430c <_ebss>
F:\文档\串口助手\ProtoThread\ProtoThread-Templates-main\CH573_PT_Template\obj/../Core/Startup/startup_CH573.S:146
	bgeu a0, a1, 2f
     8e8:	00b57763          	bgeu	a0,a1,8f6 <handle_reset+0x76>
F:\文档\串口助手\ProtoThread\ProtoThread-Templates-main\CH573_PT_Template\obj/../Core/Startup/startup_CH573.S:148
1:
	sw zero, (a0)
     8ec:	00052023          	sw	zero,0(a0)
F:\文档\串口助手\ProtoThread\ProtoThread-Templates-main\CH573_PT_Template\obj/../Core/Startup/startup_CH573.S:149
	addi a0, a0, 4
     8f0:	0511                	addi	a0,a0,4
F:\文档\串口助手\ProtoThread\ProtoThread-Templates-main\CH573_PT_Template\obj/../Core/Startup/startup_CH573.S:150
	bltu a0, a1, 1b
     8f2:	feb56de3          	bltu	a0,a1,8ec <handle_reset+0x6c>
F:\文档\串口助手\ProtoThread\ProtoThread-Templates-main\CH573_PT_Template\obj/../Core/Startup/startup_CH573.S:152
2:
    li t0, 0x88
     8f6:	08800293          	li	t0,136
F:\文档\串口助手\ProtoThread\ProtoThread-Templates-main\CH573_PT_Template\obj/../Core/Startup/startup_CH573.S:153
    csrs mstatus, t0
     8fa:	3002a073          	csrs	mstatus,t0
F:\文档\串口助手\ProtoThread\ProtoThread-Templates-main\CH573_PT_Template\obj/../Core/Startup/startup_CH573.S:154
	la t0, _vector_base
     8fe:	20003297          	auipc	t0,0x20003
     902:	f0228293          	addi	t0,t0,-254 # 20003800 <_highcode_vma_start>
F:\文档\串口助手\ProtoThread\ProtoThread-Templates-main\CH573_PT_Template\obj/../Core/Startup/startup_CH573.S:155
    ori t0, t0, 1
     906:	0012e293          	ori	t0,t0,1
F:\文档\串口助手\ProtoThread\ProtoThread-Templates-main\CH573_PT_Template\obj/../Core/Startup/startup_CH573.S:156
	csrw mtvec, t0
     90a:	30529073          	csrw	mtvec,t0
F:\文档\串口助手\ProtoThread\ProtoThread-Templates-main\CH573_PT_Template\obj/../Core/Startup/startup_CH573.S:157
	la t0, main
     90e:	00000297          	auipc	t0,0x0
     912:	18a28293          	addi	t0,t0,394 # a98 <main>
F:\文档\串口助手\ProtoThread\ProtoThread-Templates-main\CH573_PT_Template\obj/../Core/Startup/startup_CH573.S:158
	csrw mepc, t0
     916:	34129073          	csrw	mepc,t0
F:\文档\串口助手\ProtoThread\ProtoThread-Templates-main\CH573_PT_Template\obj/../Core/Startup/startup_CH573.S:165
	/* enable vector relocation
	li t0, 0xE000ED14
	li t1, 1
	sw t1, 0(t0)*/
	
	mret
     91a:	30200073          	mret

0000091e <memset>:
memset():
     91e:	433d                	li	t1,15
     920:	872a                	mv	a4,a0
     922:	02c37363          	bgeu	t1,a2,948 <memset+0x2a>
     926:	00f77793          	andi	a5,a4,15
     92a:	efbd                	bnez	a5,9a8 <memset+0x8a>
     92c:	e5ad                	bnez	a1,996 <memset+0x78>
     92e:	ff067693          	andi	a3,a2,-16
     932:	8a3d                	andi	a2,a2,15
     934:	96ba                	add	a3,a3,a4
     936:	c30c                	sw	a1,0(a4)
     938:	c34c                	sw	a1,4(a4)
     93a:	c70c                	sw	a1,8(a4)
     93c:	c74c                	sw	a1,12(a4)
     93e:	0741                	addi	a4,a4,16
     940:	fed76be3          	bltu	a4,a3,936 <memset+0x18>
     944:	e211                	bnez	a2,948 <memset+0x2a>
     946:	8082                	ret
     948:	40c306b3          	sub	a3,t1,a2
     94c:	068a                	slli	a3,a3,0x2
     94e:	00000297          	auipc	t0,0x0
     952:	9696                	add	a3,a3,t0
     954:	00a68067          	jr	10(a3)
     958:	00b70723          	sb	a1,14(a4) # 7800e <_data_lma+0x7662a>
     95c:	00b706a3          	sb	a1,13(a4)
     960:	00b70623          	sb	a1,12(a4)
     964:	00b705a3          	sb	a1,11(a4)
     968:	00b70523          	sb	a1,10(a4)
     96c:	00b704a3          	sb	a1,9(a4)
     970:	00b70423          	sb	a1,8(a4)
     974:	00b703a3          	sb	a1,7(a4)
     978:	00b70323          	sb	a1,6(a4)
     97c:	00b702a3          	sb	a1,5(a4)
     980:	00b70223          	sb	a1,4(a4)
     984:	00b701a3          	sb	a1,3(a4)
     988:	00b70123          	sb	a1,2(a4)
     98c:	00b700a3          	sb	a1,1(a4)
     990:	00b70023          	sb	a1,0(a4)
     994:	8082                	ret
     996:	0ff5f593          	andi	a1,a1,255
     99a:	00859693          	slli	a3,a1,0x8
     99e:	8dd5                	or	a1,a1,a3
     9a0:	01059693          	slli	a3,a1,0x10
     9a4:	8dd5                	or	a1,a1,a3
     9a6:	b761                	j	92e <memset+0x10>
     9a8:	00279693          	slli	a3,a5,0x2
     9ac:	00000297          	auipc	t0,0x0
     9b0:	9696                	add	a3,a3,t0
     9b2:	8286                	mv	t0,ra
     9b4:	fa8680e7          	jalr	-88(a3)
     9b8:	8096                	mv	ra,t0
     9ba:	17c1                	addi	a5,a5,-16
     9bc:	8f1d                	sub	a4,a4,a5
     9be:	963e                	add	a2,a2,a5
     9c0:	f8c374e3          	bgeu	t1,a2,948 <memset+0x2a>
     9c4:	b7a5                	j	92c <memset+0xe>

000009c6 <UART1_Init>:
UART1_Init():
F:\文档\串口助手\ProtoThread\ProtoThread-Templates-main\CH573_PT_Template\obj/../Src/APP/CH57x_uart_threads.c:26
 *
 * @return  none
 */
void UART1_Init(void)
{
    GPIOA_SetBits(GPIO_Pin_9);
     9c6:	40001737          	lui	a4,0x40001
     9ca:	0a872783          	lw	a5,168(a4) # 400010a8 <_eusrstack+0x1fff90a8>
F:\文档\串口助手\ProtoThread\ProtoThread-Templates-main\CH573_PT_Template\obj/../Src/APP/CH57x_uart_threads.c:25
{
     9ce:	1141                	addi	sp,sp,-16
     9d0:	c606                	sw	ra,12(sp)
F:\文档\串口助手\ProtoThread\ProtoThread-Templates-main\CH573_PT_Template\obj/../Src/APP/CH57x_uart_threads.c:26
    GPIOA_SetBits(GPIO_Pin_9);
     9d2:	2007e793          	ori	a5,a5,512
     9d6:	0af72423          	sw	a5,168(a4)
F:\文档\串口助手\ProtoThread\ProtoThread-Templates-main\CH573_PT_Template\obj/../Src/APP/CH57x_uart_threads.c:27
    GPIOA_ModeCfg(GPIO_Pin_8, GPIO_ModeIN_PU);      // RXD-配置上拉输入
     9da:	4585                	li	a1,1
     9dc:	10000513          	li	a0,256
     9e0:	2495                	jal	c44 <GPIOA_ModeCfg>
F:\文档\串口助手\ProtoThread\ProtoThread-Templates-main\CH573_PT_Template\obj/../Src/APP/CH57x_uart_threads.c:28
    GPIOA_ModeCfg(GPIO_Pin_9, GPIO_ModeOut_PP_5mA); // TXD-配置推挽输出，注意先让IO口输出高电平
     9e2:	458d                	li	a1,3
     9e4:	20000513          	li	a0,512
     9e8:	2cb1                	jal	c44 <GPIOA_ModeCfg>
F:\文档\串口助手\ProtoThread\ProtoThread-Templates-main\CH573_PT_Template\obj/../Src/APP/CH57x_uart_threads.c:30
    UART1_DefInit();
}
     9ea:	40b2                	lw	ra,12(sp)
     9ec:	0141                	addi	sp,sp,16
F:\文档\串口助手\ProtoThread\ProtoThread-Templates-main\CH573_PT_Template\obj/../Src/APP/CH57x_uart_threads.c:29
    UART1_DefInit();
     9ee:	ae59                	j	d84 <UART1_DefInit>

000009f0 <protothread_recv>:
protothread_recv():
F:\文档\串口助手\ProtoThread\ProtoThread-Templates-main\CH573_PT_Template\obj/../Src/APP/CH57x_uart_threads.c:43
 *
 * @return  protothread状态
 */
PT_THREAD(protothread_recv(struct pt *pt))
{
    PT_BEGIN(pt);
     9f0:	00055783          	lhu	a5,0(a0)
     9f4:	c789                	beqz	a5,9fe <protothread_recv+0xe>
     9f6:	03800713          	li	a4,56
     9fa:	04e79d63          	bne	a5,a4,a54 <protothread_recv+0x64>
F:\文档\串口助手\ProtoThread\ProtoThread-Templates-main\CH573_PT_Template\obj/../Src/APP/CH57x_uart_threads.c:42 (discriminator 2)
{
     9fe:	1141                	addi	sp,sp,-16
     a00:	c226                	sw	s1,4(sp)
F:\文档\串口助手\ProtoThread\ProtoThread-Templates-main\CH573_PT_Template\obj/../Src/APP/CH57x_uart_threads.c:48 (discriminator 2)

    static uint8_t len;

    while (1) {
        len = UART1_RecvString(RxBuff);
     a02:	83c18493          	addi	s1,gp,-1988 # 20004124 <RxBuff>
F:\文档\串口助手\ProtoThread\ProtoThread-Templates-main\CH573_PT_Template\obj/../Src/APP/CH57x_uart_threads.c:42 (discriminator 2)
{
     a06:	c422                	sw	s0,8(sp)
     a08:	842a                	mv	s0,a0
F:\文档\串口助手\ProtoThread\ProtoThread-Templates-main\CH573_PT_Template\obj/../Src/APP/CH57x_uart_threads.c:48 (discriminator 2)
        len = UART1_RecvString(RxBuff);
     a0a:	8526                	mv	a0,s1
F:\文档\串口助手\ProtoThread\ProtoThread-Templates-main\CH573_PT_Template\obj/../Src/APP/CH57x_uart_threads.c:42 (discriminator 2)
{
     a0c:	c606                	sw	ra,12(sp)
F:\文档\串口助手\ProtoThread\ProtoThread-Templates-main\CH573_PT_Template\obj/../Src/APP/CH57x_uart_threads.c:48 (discriminator 2)
        len = UART1_RecvString(RxBuff);
     a0e:	2ec1                	jal	dde <UART1_RecvString>
     a10:	0ff57513          	andi	a0,a0,255
     a14:	80a184a3          	sb	a0,-2039(gp) # 200040f1 <len.3813>
F:\文档\串口助手\ProtoThread\ProtoThread-Templates-main\CH573_PT_Template\obj/../Src/APP/CH57x_uart_threads.c:49 (discriminator 2)
        if (len) {
     a18:	c505                	beqz	a0,a40 <protothread_recv+0x50>
F:\文档\串口助手\ProtoThread\ProtoThread-Templates-main\CH573_PT_Template\obj/../Src/APP/CH57x_uart_threads.c:50
            RxBuff[len] = '\0'; // 添加字符串终止符
     a1a:	9526                	add	a0,a0,s1
     a1c:	00050023          	sb	zero,0(a0)
F:\文档\串口助手\ProtoThread\ProtoThread-Templates-main\CH573_PT_Template\obj/../Src/APP/CH57x_uart_threads.c:52
            // 根据接收到的内容进行处理，这里简单回显
            UART1_SendString((PUINT8)"Received: ", 10);
     a20:	45a9                	li	a1,10
     a22:	00001517          	auipc	a0,0x1
     a26:	f1650513          	addi	a0,a0,-234 # 1938 <_sbrk+0x20>
     a2a:	2671                	jal	db6 <UART1_SendString>
F:\文档\串口助手\ProtoThread\ProtoThread-Templates-main\CH573_PT_Template\obj/../Src/APP/CH57x_uart_threads.c:53
            UART1_SendString(RxBuff, len);
     a2c:	8091c583          	lbu	a1,-2039(gp) # 200040f1 <len.3813>
     a30:	8526                	mv	a0,s1
     a32:	2651                	jal	db6 <UART1_SendString>
F:\文档\串口助手\ProtoThread\ProtoThread-Templates-main\CH573_PT_Template\obj/../Src/APP/CH57x_uart_threads.c:54
            UART1_SendString((PUINT8)"\r\n", 2);
     a34:	4589                	li	a1,2
     a36:	00001517          	auipc	a0,0x1
     a3a:	f0e50513          	addi	a0,a0,-242 # 1944 <_sbrk+0x2c>
     a3e:	2ea5                	jal	db6 <UART1_SendString>
F:\文档\串口助手\ProtoThread\ProtoThread-Templates-main\CH573_PT_Template\obj/../Src/APP/CH57x_uart_threads.c:56
        }
        PT_YIELD(pt);
     a40:	03800793          	li	a5,56
     a44:	00f41023          	sh	a5,0(s0)
F:\文档\串口助手\ProtoThread\ProtoThread-Templates-main\CH573_PT_Template\obj/../Src/APP/CH57x_uart_threads.c:60
    }

    PT_END(pt);
}
     a48:	40b2                	lw	ra,12(sp)
     a4a:	4422                	lw	s0,8(sp)
     a4c:	4492                	lw	s1,4(sp)
F:\文档\串口助手\ProtoThread\ProtoThread-Templates-main\CH573_PT_Template\obj/../Src/APP/CH57x_uart_threads.c:56
        PT_YIELD(pt);
     a4e:	4505                	li	a0,1
F:\文档\串口助手\ProtoThread\ProtoThread-Templates-main\CH573_PT_Template\obj/../Src/APP/CH57x_uart_threads.c:60
}
     a50:	0141                	addi	sp,sp,16
     a52:	8082                	ret
F:\文档\串口助手\ProtoThread\ProtoThread-Templates-main\CH573_PT_Template\obj/../Src/APP/CH57x_uart_threads.c:59
    PT_END(pt);
     a54:	00051023          	sh	zero,0(a0)
     a58:	450d                	li	a0,3
F:\文档\串口助手\ProtoThread\ProtoThread-Templates-main\CH573_PT_Template\obj/../Src/APP/CH57x_uart_threads.c:60
}
     a5a:	8082                	ret

00000a5c <protothread_send>:
protothread_send():
F:\文档\串口助手\ProtoThread\ProtoThread-Templates-main\CH573_PT_Template\obj/../Src/APP/CH57x_uart_threads.c:73
 *
 * @return  protothread状态
 */
PT_THREAD(protothread_send(struct pt *pt))
{
    PT_BEGIN(pt);
     a5c:	00055783          	lhu	a5,0(a0)
     a60:	c385                	beqz	a5,a80 <protothread_send+0x24>
     a62:	05100713          	li	a4,81
     a66:	02e79563          	bne	a5,a4,a90 <protothread_send+0x34>
F:\文档\串口助手\ProtoThread\ProtoThread-Templates-main\CH573_PT_Template\obj/../Src/APP/CH57x_uart_threads.c:80
    static uint8_t send_interval = 100; // 发送间隔，单位：ms
    static uint8_t i = 0;

    while (1) {
        // 不再发送提示信息，只做定时操作
        for (i = 0; i < send_interval; i++) {
     a6a:	8081c783          	lbu	a5,-2040(gp) # 200040f0 <_edata>
     a6e:	0785                	addi	a5,a5,1
     a70:	0ff7f793          	andi	a5,a5,255
     a74:	80f18423          	sb	a5,-2040(gp) # 200040f0 <_edata>
     a78:	06300713          	li	a4,99
     a7c:	00f77463          	bgeu	a4,a5,a84 <protothread_send+0x28>
F:\文档\串口助手\ProtoThread\ProtoThread-Templates-main\CH573_PT_Template\obj/../Src/APP/CH57x_uart_threads.c:80 (discriminator 2)
     a80:	80018423          	sb	zero,-2040(gp) # 200040f0 <_edata>
F:\文档\串口助手\ProtoThread\ProtoThread-Templates-main\CH573_PT_Template\obj/../Src/APP/CH57x_uart_threads.c:81
            PT_YIELD(pt);
     a84:	05100793          	li	a5,81
     a88:	00f51023          	sh	a5,0(a0)
     a8c:	4505                	li	a0,1
     a8e:	8082                	ret
F:\文档\串口助手\ProtoThread\ProtoThread-Templates-main\CH573_PT_Template\obj/../Src/APP/CH57x_uart_threads.c:85
        }
    }

    PT_END(pt);
     a90:	00051023          	sh	zero,0(a0)
     a94:	450d                	li	a0,3
F:\文档\串口助手\ProtoThread\ProtoThread-Templates-main\CH573_PT_Template\obj/../Src/APP/CH57x_uart_threads.c:86
}
     a96:	8082                	ret

00000a98 <main>:
main():
F:\文档\串口助手\ProtoThread\ProtoThread-Templates-main\CH573_PT_Template\obj/../Src/APP/main.c:20
 * @brief   主函数
 *
 * @return  none
 */
int main()
{
     a98:	1141                	addi	sp,sp,-16
F:\文档\串口助手\ProtoThread\ProtoThread-Templates-main\CH573_PT_Template\obj/../Src/APP/main.c:21
    SetSysClock(CLK_SOURCE_PLL_60MHz);
     a9a:	04800513          	li	a0,72
F:\文档\串口助手\ProtoThread\ProtoThread-Templates-main\CH573_PT_Template\obj/../Src/APP/main.c:20
{
     a9e:	c606                	sw	ra,12(sp)
     aa0:	c422                	sw	s0,8(sp)
     aa2:	c226                	sw	s1,4(sp)
F:\文档\串口助手\ProtoThread\ProtoThread-Templates-main\CH573_PT_Template\obj/../Src/APP/main.c:21
    SetSysClock(CLK_SOURCE_PLL_60MHz);
     aa4:	20003097          	auipc	ra,0x20003
     aa8:	080080e7          	jalr	128(ra) # 20003b24 <SetSysClock>
F:\文档\串口助手\ProtoThread\ProtoThread-Templates-main\CH573_PT_Template\obj/../Src/APP/main.c:24

    // 初始化串口
    UART1_Init();
     aac:	3f29                	jal	9c6 <UART1_Init>
F:\文档\串口助手\ProtoThread\ProtoThread-Templates-main\CH573_PT_Template\obj/../Src/APP/main.c:27

    // 启动时提示用户输入
    UART1_SendString((PUINT8)"Enter command: ", 15);
     aae:	45bd                	li	a1,15
     ab0:	00001517          	auipc	a0,0x1
     ab4:	e9850513          	addi	a0,a0,-360 # 1948 <_sbrk+0x30>
     ab8:	2cfd                	jal	db6 <UART1_SendString>
F:\文档\串口助手\ProtoThread\ProtoThread-Templates-main\CH573_PT_Template\obj/../Src/APP/main.c:34
    // 初始化protothread
    PT_INIT(&pt_recv);
    PT_INIT(&pt_send);

    while (1) {
        protothread_recv(&pt_recv);
     aba:	80c18493          	addi	s1,gp,-2036 # 200040f4 <pt_recv>
F:\文档\串口助手\ProtoThread\ProtoThread-Templates-main\CH573_PT_Template\obj/../Src/APP/main.c:30
    PT_INIT(&pt_recv);
     abe:	80019623          	sh	zero,-2036(gp) # 200040f4 <pt_recv>
F:\文档\串口助手\ProtoThread\ProtoThread-Templates-main\CH573_PT_Template\obj/../Src/APP/main.c:31
    PT_INIT(&pt_send);
     ac2:	80019823          	sh	zero,-2032(gp) # 200040f8 <pt_send>
F:\文档\串口助手\ProtoThread\ProtoThread-Templates-main\CH573_PT_Template\obj/../Src/APP/main.c:35
        protothread_send(&pt_send);
     ac6:	81018413          	addi	s0,gp,-2032 # 200040f8 <pt_send>
F:\文档\串口助手\ProtoThread\ProtoThread-Templates-main\CH573_PT_Template\obj/../Src/APP/main.c:34 (discriminator 1)
        protothread_recv(&pt_recv);
     aca:	8526                	mv	a0,s1
     acc:	3715                	jal	9f0 <protothread_recv>
F:\文档\串口助手\ProtoThread\ProtoThread-Templates-main\CH573_PT_Template\obj/../Src/APP/main.c:35 (discriminator 1)
        protothread_send(&pt_send);
     ace:	8522                	mv	a0,s0
     ad0:	3771                	jal	a5c <protothread_send>
     ad2:	bfe5                	j	aca <main+0x32>

00000ad4 <update_time>:
update_time():
F:\文档\串口助手\ProtoThread\ProtoThread-Templates-main\CH573_PT_Template\obj/../OS/ProtoThread-Core/sys/etimer.c:59
{
     ad4:	1141                	addi	sp,sp,-16
     ad6:	c422                	sw	s0,8(sp)
F:\文档\串口助手\ProtoThread\ProtoThread-Templates-main\CH573_PT_Template\obj/../OS/ProtoThread-Core/sys/etimer.c:64
  if(timerlist == NULL) {
     ad8:	81c18413          	addi	s0,gp,-2020 # 20004104 <timerlist>
     adc:	401c                	lw	a5,0(s0)
F:\文档\串口助手\ProtoThread\ProtoThread-Templates-main\CH573_PT_Template\obj/../OS/ProtoThread-Core/sys/etimer.c:59
{
     ade:	c606                	sw	ra,12(sp)
F:\文档\串口助手\ProtoThread\ProtoThread-Templates-main\CH573_PT_Template\obj/../OS/ProtoThread-Core/sys/etimer.c:64
  if(timerlist == NULL) {
     ae0:	e799                	bnez	a5,aee <update_time+0x1a>
F:\文档\串口助手\ProtoThread\ProtoThread-Templates-main\CH573_PT_Template\obj/../OS/ProtoThread-Core/sys/etimer.c:65
    next_expiration = 0;
     ae2:	8001ac23          	sw	zero,-2024(gp) # 20004100 <next_expiration>
F:\文档\串口助手\ProtoThread\ProtoThread-Templates-main\CH573_PT_Template\obj/../OS/ProtoThread-Core/sys/etimer.c:78
}
     ae6:	40b2                	lw	ra,12(sp)
     ae8:	4422                	lw	s0,8(sp)
     aea:	0141                	addi	sp,sp,16
     aec:	8082                	ret
F:\文档\串口助手\ProtoThread\ProtoThread-Templates-main\CH573_PT_Template\obj/../OS/ProtoThread-Core/sys/etimer.c:67
    now = protothread_clock_time();
     aee:	20003097          	auipc	ra,0x20003
     af2:	dce080e7          	jalr	-562(ra) # 200038bc <protothread_clock_time>
F:\文档\串口助手\ProtoThread\ProtoThread-Templates-main\CH573_PT_Template\obj/../OS/ProtoThread-Core/sys/etimer.c:68
    t = timerlist;
     af6:	4018                	lw	a4,0(s0)
F:\文档\串口助手\ProtoThread\ProtoThread-Templates-main\CH573_PT_Template\obj/../OS/ProtoThread-Core/sys/etimer.c:70
    tdist = t->timer.start + t->timer.interval - now;
     af8:	4354                	lw	a3,4(a4)
     afa:	431c                	lw	a5,0(a4)
     afc:	97b6                	add	a5,a5,a3
F:\文档\串口助手\ProtoThread\ProtoThread-Templates-main\CH573_PT_Template\obj/../OS/ProtoThread-Core/sys/etimer.c:71
    for(t = t->next; t != NULL; t = t->next) {
     afe:	4714                	lw	a3,8(a4)
F:\文档\串口助手\ProtoThread\ProtoThread-Templates-main\CH573_PT_Template\obj/../OS/ProtoThread-Core/sys/etimer.c:70
    tdist = t->timer.start + t->timer.interval - now;
     b00:	8f89                	sub	a5,a5,a0
F:\文档\串口助手\ProtoThread\ProtoThread-Templates-main\CH573_PT_Template\obj/../OS/ProtoThread-Core/sys/etimer.c:71
    for(t = t->next; t != NULL; t = t->next) {
     b02:	e689                	bnez	a3,b0c <update_time+0x38>
F:\文档\串口助手\ProtoThread\ProtoThread-Templates-main\CH573_PT_Template\obj/../OS/ProtoThread-Core/sys/etimer.c:76
    next_expiration = now + tdist;
     b04:	953e                	add	a0,a0,a5
     b06:	80a1ac23          	sw	a0,-2024(gp) # 20004100 <next_expiration>
F:\文档\串口助手\ProtoThread\ProtoThread-Templates-main\CH573_PT_Template\obj/../OS/ProtoThread-Core/sys/etimer.c:78
}
     b0a:	bff1                	j	ae6 <update_time+0x12>
F:\文档\串口助手\ProtoThread\ProtoThread-Templates-main\CH573_PT_Template\obj/../OS/ProtoThread-Core/sys/etimer.c:72
      if(t->timer.start + t->timer.interval - now < tdist) {
     b0c:	4298                	lw	a4,0(a3)
     b0e:	42d0                	lw	a2,4(a3)
     b10:	9732                	add	a4,a4,a2
     b12:	8f09                	sub	a4,a4,a0
     b14:	00f77363          	bgeu	a4,a5,b1a <update_time+0x46>
     b18:	87ba                	mv	a5,a4
F:\文档\串口助手\ProtoThread\ProtoThread-Templates-main\CH573_PT_Template\obj/../OS/ProtoThread-Core/sys/etimer.c:71
    for(t = t->next; t != NULL; t = t->next) {
     b1a:	4694                	lw	a3,8(a3)
     b1c:	b7dd                	j	b02 <update_time+0x2e>

00000b1e <process_thread_etimer_process>:
process_thread_etimer_process():
F:\文档\串口助手\ProtoThread\ProtoThread-Templates-main\CH573_PT_Template\obj/../OS/ProtoThread-Core/sys/etimer.c:84
  PROCESS_BEGIN();
     b1e:	00055783          	lhu	a5,0(a0)
F:\文档\串口助手\ProtoThread\ProtoThread-Templates-main\CH573_PT_Template\obj/../OS/ProtoThread-Core/sys/etimer.c:81
{
     b22:	1101                	addi	sp,sp,-32
     b24:	ca26                	sw	s1,20(sp)
     b26:	ce06                	sw	ra,28(sp)
     b28:	cc22                	sw	s0,24(sp)
     b2a:	c84a                	sw	s2,16(sp)
     b2c:	c64e                	sw	s3,12(sp)
     b2e:	84aa                	mv	s1,a0
     b30:	cf99                	beqz	a5,b4e <process_thread_etimer_process+0x30>
     b32:	05900713          	li	a4,89
     b36:	0ae79663          	bne	a5,a4,be2 <process_thread_etimer_process+0xc4>
F:\文档\串口助手\ProtoThread\ProtoThread-Templates-main\CH573_PT_Template\obj/../OS/ProtoThread-Core/sys/etimer.c:91
    if(ev == PROCESS_EVENT_EXITED) {
     b3a:	08700793          	li	a5,135
     b3e:	04f59a63          	bne	a1,a5,b92 <process_thread_etimer_process+0x74>
     b42:	81c18793          	addi	a5,gp,-2020 # 20004104 <timerlist>
     b46:	439c                	lw	a5,0(a5)
     b48:	4701                	li	a4,0
F:\文档\串口助手\ProtoThread\ProtoThread-Templates-main\CH573_PT_Template\obj/../OS/ProtoThread-Core/sys/etimer.c:94
      while(timerlist != NULL && timerlist->p == p) {
     b4a:	e39d                	bnez	a5,b70 <process_thread_etimer_process+0x52>
     b4c:	c319                	beqz	a4,b52 <process_thread_etimer_process+0x34>
F:\文档\串口助手\ProtoThread\ProtoThread-Templates-main\CH573_PT_Template\obj/../OS/ProtoThread-Core/sys/etimer.c:86 (discriminator 2)
  timerlist = NULL;
     b4e:	8001ae23          	sw	zero,-2020(gp) # 20004104 <timerlist>
F:\文档\串口助手\ProtoThread\ProtoThread-Templates-main\CH573_PT_Template\obj/../OS/ProtoThread-Core/sys/etimer.c:89
    PROCESS_YIELD();
     b52:	05900793          	li	a5,89
     b56:	00f49023          	sh	a5,0(s1)
     b5a:	4505                	li	a0,1
F:\文档\串口助手\ProtoThread\ProtoThread-Templates-main\CH573_PT_Template\obj/../OS/ProtoThread-Core/sys/etimer.c:142 (discriminator 1)
}
     b5c:	40f2                	lw	ra,28(sp)
     b5e:	4462                	lw	s0,24(sp)
     b60:	44d2                	lw	s1,20(sp)
     b62:	4942                	lw	s2,16(sp)
     b64:	49b2                	lw	s3,12(sp)
     b66:	6105                	addi	sp,sp,32
     b68:	8082                	ret
     b6a:	4705                	li	a4,1
F:\文档\串口助手\ProtoThread\ProtoThread-Templates-main\CH573_PT_Template\obj/../OS/ProtoThread-Core/sys/etimer.c:95
        timerlist = timerlist->next;
     b6c:	87ae                	mv	a5,a1
     b6e:	bff1                	j	b4a <process_thread_etimer_process+0x2c>
F:\文档\串口助手\ProtoThread\ProtoThread-Templates-main\CH573_PT_Template\obj/../OS/ProtoThread-Core/sys/etimer.c:94 (discriminator 1)
      while(timerlist != NULL && timerlist->p == p) {
     b70:	47d4                	lw	a3,12(a5)
     b72:	478c                	lw	a1,8(a5)
     b74:	fec68be3          	beq	a3,a2,b6a <process_thread_etimer_process+0x4c>
     b78:	c319                	beqz	a4,b7e <process_thread_etimer_process+0x60>
     b7a:	80f1ae23          	sw	a5,-2020(gp) # 20004104 <timerlist>
F:\文档\串口助手\ProtoThread\ProtoThread-Templates-main\CH573_PT_Template\obj/../OS/ProtoThread-Core/sys/etimer.c:100
        while(t->next != NULL) {
     b7e:	4798                	lw	a4,8(a5)
     b80:	db69                	beqz	a4,b52 <process_thread_etimer_process+0x34>
F:\文档\串口助手\ProtoThread\ProtoThread-Templates-main\CH573_PT_Template\obj/../OS/ProtoThread-Core/sys/etimer.c:101
          if(t->next->p == p) {
     b82:	4754                	lw	a3,12(a4)
     b84:	00c69563          	bne	a3,a2,b8e <process_thread_etimer_process+0x70>
F:\文档\串口助手\ProtoThread\ProtoThread-Templates-main\CH573_PT_Template\obj/../OS/ProtoThread-Core/sys/etimer.c:102
            t->next = t->next->next;
     b88:	4718                	lw	a4,8(a4)
     b8a:	c798                	sw	a4,8(a5)
     b8c:	bfcd                	j	b7e <process_thread_etimer_process+0x60>
     b8e:	87ba                	mv	a5,a4
     b90:	b7fd                	j	b7e <process_thread_etimer_process+0x60>
F:\文档\串口助手\ProtoThread\ProtoThread-Templates-main\CH573_PT_Template\obj/../OS/ProtoThread-Core/sys/etimer.c:109
    } else if(ev != PROCESS_EVENT_POLL) {
     b92:	08200793          	li	a5,130
     b96:	faf59ee3          	bne	a1,a5,b52 <process_thread_etimer_process+0x34>
F:\文档\串口助手\ProtoThread\ProtoThread-Templates-main\CH573_PT_Template\obj/../OS/ProtoThread-Core/sys/etimer.c:117
    for(t = timerlist; t != NULL; t = t->next) {
     b9a:	81c18993          	addi	s3,gp,-2020 # 20004104 <timerlist>
     b9e:	0009a403          	lw	s0,0(s3)
F:\文档\串口助手\ProtoThread\ProtoThread-Templates-main\CH573_PT_Template\obj/../OS/ProtoThread-Core/sys/etimer.c:115
    u = NULL;
     ba2:	4901                	li	s2,0
F:\文档\串口助手\ProtoThread\ProtoThread-Templates-main\CH573_PT_Template\obj/../OS/ProtoThread-Core/sys/etimer.c:117 (discriminator 1)
    for(t = timerlist; t != NULL; t = t->next) {
     ba4:	d45d                	beqz	s0,b52 <process_thread_etimer_process+0x34>
F:\文档\串口助手\ProtoThread\ProtoThread-Templates-main\CH573_PT_Template\obj/../OS/ProtoThread-Core/sys/etimer.c:118
      if(timer_expired(&t->timer)) {
     ba6:	8522                	mv	a0,s0
     ba8:	28a5                	jal	c20 <timer_expired>
     baa:	c90d                	beqz	a0,bdc <process_thread_etimer_process+0xbe>
F:\文档\串口助手\ProtoThread\ProtoThread-Templates-main\CH573_PT_Template\obj/../OS/ProtoThread-Core/sys/etimer.c:119
        if(process_post(t->p, PROCESS_EVENT_TIMER, t) == PROCESS_ERR_OK) {
     bac:	4448                	lw	a0,12(s0)
     bae:	8622                	mv	a2,s0
     bb0:	08800593          	li	a1,136
     bb4:	281d                	jal	bea <process_post>
     bb6:	ed19                	bnez	a0,bd4 <process_thread_etimer_process+0xb6>
F:\文档\串口助手\ProtoThread\ProtoThread-Templates-main\CH573_PT_Template\obj/../OS/ProtoThread-Core/sys/etimer.c:124
          t->p = PROCESS_NONE;
     bb8:	00042623          	sw	zero,12(s0)
F:\文档\串口助手\ProtoThread\ProtoThread-Templates-main\CH573_PT_Template\obj/../OS/ProtoThread-Core/sys/etimer.c:125
          if(u != NULL) {
     bbc:	441c                	lw	a5,8(s0)
     bbe:	00090863          	beqz	s2,bce <process_thread_etimer_process+0xb0>
F:\文档\串口助手\ProtoThread\ProtoThread-Templates-main\CH573_PT_Template\obj/../OS/ProtoThread-Core/sys/etimer.c:126
            u->next = t->next;
     bc2:	00f92423          	sw	a5,8(s2)
F:\文档\串口助手\ProtoThread\ProtoThread-Templates-main\CH573_PT_Template\obj/../OS/ProtoThread-Core/sys/etimer.c:130
          t->next = NULL;
     bc6:	00042423          	sw	zero,8(s0)
F:\文档\串口助手\ProtoThread\ProtoThread-Templates-main\CH573_PT_Template\obj/../OS/ProtoThread-Core/sys/etimer.c:131
          update_time();
     bca:	3729                	jal	ad4 <update_time>
F:\文档\串口助手\ProtoThread\ProtoThread-Templates-main\CH573_PT_Template\obj/../OS/ProtoThread-Core/sys/etimer.c:132
          goto again;
     bcc:	bfc9                	j	b9e <process_thread_etimer_process+0x80>
F:\文档\串口助手\ProtoThread\ProtoThread-Templates-main\CH573_PT_Template\obj/../OS/ProtoThread-Core/sys/etimer.c:128
            timerlist = t->next;
     bce:	80f1ae23          	sw	a5,-2020(gp) # 20004104 <timerlist>
     bd2:	bfd5                	j	bc6 <process_thread_etimer_process+0xa8>
F:\文档\串口助手\ProtoThread\ProtoThread-Templates-main\CH573_PT_Template\obj/../OS/ProtoThread-Core/sys/etimer.c:134
          etimer_request_poll();
     bd4:	20003097          	auipc	ra,0x20003
     bd8:	d2e080e7          	jalr	-722(ra) # 20003902 <etimer_request_poll>
F:\文档\串口助手\ProtoThread\ProtoThread-Templates-main\CH573_PT_Template\obj/../OS/ProtoThread-Core/sys/etimer.c:117 (discriminator 2)
    for(t = timerlist; t != NULL; t = t->next) {
     bdc:	8922                	mv	s2,s0
     bde:	4400                	lw	s0,8(s0)
     be0:	b7d1                	j	ba4 <process_thread_etimer_process+0x86>
F:\文档\串口助手\ProtoThread\ProtoThread-Templates-main\CH573_PT_Template\obj/../OS/ProtoThread-Core/sys/etimer.c:141
  PROCESS_END();
     be2:	00051023          	sh	zero,0(a0)
     be6:	450d                	li	a0,3
     be8:	bf95                	j	b5c <process_thread_etimer_process+0x3e>

00000bea <process_post>:
process_post():
F:\文档\串口助手\ProtoThread\ProtoThread-Templates-main\CH573_PT_Template\obj/../OS/ProtoThread-Core/sys/process.c:328
  if(nevents == PROCESS_CONF_NUMEVENTS) {
     bea:	8211c703          	lbu	a4,-2015(gp) # 20004109 <nevents>
     bee:	02000793          	li	a5,32
     bf2:	02f70563          	beq	a4,a5,c1c <process_post+0x32>
F:\文档\串口助手\ProtoThread\ProtoThread-Templates-main\CH573_PT_Template\obj/../OS/ProtoThread-Core/sys/process.c:339
  snum = (process_num_events_t)(fevent + nevents) % PROCESS_CONF_NUMEVENTS;
     bf6:	8201c783          	lbu	a5,-2016(gp) # 20004108 <fevent>
     bfa:	97ba                	add	a5,a5,a4
F:\文档\串口助手\ProtoThread\ProtoThread-Templates-main\CH573_PT_Template\obj/../OS/ProtoThread-Core/sys/process.c:340
  events[snum].ev = ev;
     bfc:	46b1                	li	a3,12
     bfe:	8bfd                	andi	a5,a5,31
     c00:	02d787b3          	mul	a5,a5,a3
     c04:	8a018693          	addi	a3,gp,-1888 # 20004188 <events>
F:\文档\串口助手\ProtoThread\ProtoThread-Templates-main\CH573_PT_Template\obj/../OS/ProtoThread-Core/sys/process.c:343
  ++nevents;
     c08:	0705                	addi	a4,a4,1
F:\文档\串口助手\ProtoThread\ProtoThread-Templates-main\CH573_PT_Template\obj/../OS/ProtoThread-Core/sys/process.c:340
  events[snum].ev = ev;
     c0a:	97b6                	add	a5,a5,a3
F:\文档\串口助手\ProtoThread\ProtoThread-Templates-main\CH573_PT_Template\obj/../OS/ProtoThread-Core/sys/process.c:342
  events[snum].p = p;
     c0c:	c788                	sw	a0,8(a5)
F:\文档\串口助手\ProtoThread\ProtoThread-Templates-main\CH573_PT_Template\obj/../OS/ProtoThread-Core/sys/process.c:340
  events[snum].ev = ev;
     c0e:	00b78023          	sb	a1,0(a5)
F:\文档\串口助手\ProtoThread\ProtoThread-Templates-main\CH573_PT_Template\obj/../OS/ProtoThread-Core/sys/process.c:341
  events[snum].data = data;
     c12:	c3d0                	sw	a2,4(a5)
F:\文档\串口助手\ProtoThread\ProtoThread-Templates-main\CH573_PT_Template\obj/../OS/ProtoThread-Core/sys/process.c:345
  return PROCESS_ERR_OK;
     c14:	4501                	li	a0,0
F:\文档\串口助手\ProtoThread\ProtoThread-Templates-main\CH573_PT_Template\obj/../OS/ProtoThread-Core/sys/process.c:343
  ++nevents;
     c16:	82e180a3          	sb	a4,-2015(gp) # 20004109 <nevents>
F:\文档\串口助手\ProtoThread\ProtoThread-Templates-main\CH573_PT_Template\obj/../OS/ProtoThread-Core/sys/process.c:345
  return PROCESS_ERR_OK;
     c1a:	8082                	ret
F:\文档\串口助手\ProtoThread\ProtoThread-Templates-main\CH573_PT_Template\obj/../OS/ProtoThread-Core/sys/process.c:336
    return PROCESS_ERR_FULL;
     c1c:	4505                	li	a0,1
F:\文档\串口助手\ProtoThread\ProtoThread-Templates-main\CH573_PT_Template\obj/../OS/ProtoThread-Core/sys/process.c:346
}
     c1e:	8082                	ret

00000c20 <timer_expired>:
timer_expired():
F:\文档\串口助手\ProtoThread\ProtoThread-Templates-main\CH573_PT_Template\obj/../OS/ProtoThread-Core/sys/timer.c:123
 * \return Non-zero if the timer has expired, zero otherwise.
 *
 */
int
timer_expired(struct timer *t)
{
     c20:	1141                	addi	sp,sp,-16
     c22:	c422                	sw	s0,8(sp)
     c24:	c606                	sw	ra,12(sp)
     c26:	842a                	mv	s0,a0
F:\文档\串口助手\ProtoThread\ProtoThread-Templates-main\CH573_PT_Template\obj/../OS/ProtoThread-Core/sys/timer.c:126
  /* Note: Can not return diff >= t->interval so we add 1 to diff and return
     t->interval < diff - required to avoid an internal error in mspgcc. */
  clock_time_t diff = (protothread_clock_time() - t->start) + 1;
     c28:	20003097          	auipc	ra,0x20003
     c2c:	c94080e7          	jalr	-876(ra) # 200038bc <protothread_clock_time>
     c30:	401c                	lw	a5,0(s0)
F:\文档\串口助手\ProtoThread\ProtoThread-Templates-main\CH573_PT_Template\obj/../OS/ProtoThread-Core/sys/timer.c:129
  return t->interval < diff;

}
     c32:	40b2                	lw	ra,12(sp)
F:\文档\串口助手\ProtoThread\ProtoThread-Templates-main\CH573_PT_Template\obj/../OS/ProtoThread-Core/sys/timer.c:126
  clock_time_t diff = (protothread_clock_time() - t->start) + 1;
     c34:	8d1d                	sub	a0,a0,a5
F:\文档\串口助手\ProtoThread\ProtoThread-Templates-main\CH573_PT_Template\obj/../OS/ProtoThread-Core/sys/timer.c:127
  return t->interval < diff;
     c36:	405c                	lw	a5,4(s0)
F:\文档\串口助手\ProtoThread\ProtoThread-Templates-main\CH573_PT_Template\obj/../OS/ProtoThread-Core/sys/timer.c:129
}
     c38:	4422                	lw	s0,8(sp)
F:\文档\串口助手\ProtoThread\ProtoThread-Templates-main\CH573_PT_Template\obj/../OS/ProtoThread-Core/sys/timer.c:126
  clock_time_t diff = (protothread_clock_time() - t->start) + 1;
     c3a:	0505                	addi	a0,a0,1
F:\文档\串口助手\ProtoThread\ProtoThread-Templates-main\CH573_PT_Template\obj/../OS/ProtoThread-Core/sys/timer.c:129
}
     c3c:	00a7b533          	sltu	a0,a5,a0
     c40:	0141                	addi	sp,sp,16
     c42:	8082                	ret

00000c44 <GPIOA_ModeCfg>:
GPIOA_ModeCfg():
F:\文档\串口助手\ProtoThread\ProtoThread-Templates-main\CH573_PT_Template\obj/../Drivers/StdPeriphDriver/CH57x_gpio.c:27
					GPIO_ModeOut_PP_20mA  -  推挽输出最大20mA				   				
* Return         : None
*******************************************************************************/
void GPIOA_ModeCfg( UINT32 pin, GPIOModeTypeDef mode )
{	
    switch(mode)
     c44:	4791                	li	a5,4
     c46:	02b7ee63          	bltu	a5,a1,c82 <GPIOA_ModeCfg+0x3e>
     c4a:	00001717          	auipc	a4,0x1
     c4e:	d0e70713          	addi	a4,a4,-754 # 1958 <_sbrk+0x40>
     c52:	058a                	slli	a1,a1,0x2
     c54:	95ba                	add	a1,a1,a4
     c56:	419c                	lw	a5,0(a1)
     c58:	97ba                	add	a5,a5,a4
     c5a:	8782                	jr	a5
F:\文档\串口助手\ProtoThread\ProtoThread-Templates-main\CH573_PT_Template\obj/../Drivers/StdPeriphDriver/CH57x_gpio.c:30
    {
        case GPIO_ModeIN_Floating:
            R32_PA_PD_DRV &= ~pin;
     c5c:	400017b7          	lui	a5,0x40001
     c60:	0b47a703          	lw	a4,180(a5) # 400010b4 <_eusrstack+0x1fff90b4>
     c64:	fff54513          	not	a0,a0
     c68:	8f69                	and	a4,a4,a0
     c6a:	0ae7aa23          	sw	a4,180(a5)
F:\文档\串口助手\ProtoThread\ProtoThread-Templates-main\CH573_PT_Template\obj/../Drivers/StdPeriphDriver/CH57x_gpio.c:31
            R32_PA_PU     &= ~pin;
     c6e:	0b07a703          	lw	a4,176(a5)
F:\文档\串口助手\ProtoThread\ProtoThread-Templates-main\CH573_PT_Template\obj/../Drivers/StdPeriphDriver/CH57x_gpio.c:43
            R32_PA_DIR    &= ~pin;
            break;

        case GPIO_ModeIN_PD:
            R32_PA_PD_DRV |= pin;
            R32_PA_PU     &= ~pin;
     c72:	8f69                	and	a4,a4,a0
     c74:	0ae7a823          	sw	a4,176(a5)
F:\文档\串口助手\ProtoThread\ProtoThread-Templates-main\CH573_PT_Template\obj/../Drivers/StdPeriphDriver/CH57x_gpio.c:44
            R32_PA_DIR    &= ~pin;
     c78:	0a07a703          	lw	a4,160(a5)
     c7c:	8d79                	and	a0,a0,a4
F:\文档\串口助手\ProtoThread\ProtoThread-Templates-main\CH573_PT_Template\obj/../Drivers/StdPeriphDriver/CH57x_gpio.c:54
            R32_PA_DIR    |= pin;
            break;

        case GPIO_ModeOut_PP_20mA:
            R32_PA_PD_DRV |= pin;
            R32_PA_DIR    |= pin;
     c7e:	0aa7a023          	sw	a0,160(a5)
F:\文档\串口助手\ProtoThread\ProtoThread-Templates-main\CH573_PT_Template\obj/../Drivers/StdPeriphDriver/CH57x_gpio.c:60
            break;

        default:
            break;
    }
}
     c82:	8082                	ret
F:\文档\串口助手\ProtoThread\ProtoThread-Templates-main\CH573_PT_Template\obj/../Drivers/StdPeriphDriver/CH57x_gpio.c:36
            R32_PA_PD_DRV &= ~pin;
     c84:	400017b7          	lui	a5,0x40001
     c88:	0b47a683          	lw	a3,180(a5) # 400010b4 <_eusrstack+0x1fff90b4>
     c8c:	fff54713          	not	a4,a0
     c90:	8ef9                	and	a3,a3,a4
     c92:	0ad7aa23          	sw	a3,180(a5)
F:\文档\串口助手\ProtoThread\ProtoThread-Templates-main\CH573_PT_Template\obj/../Drivers/StdPeriphDriver/CH57x_gpio.c:37
            R32_PA_PU     |= pin;
     c96:	0b07a683          	lw	a3,176(a5)
     c9a:	8d55                	or	a0,a0,a3
     c9c:	0aa7a823          	sw	a0,176(a5)
F:\文档\串口助手\ProtoThread\ProtoThread-Templates-main\CH573_PT_Template\obj/../Drivers/StdPeriphDriver/CH57x_gpio.c:38
            R32_PA_DIR    &= ~pin;
     ca0:	0a07a683          	lw	a3,160(a5)
     ca4:	8f75                	and	a4,a4,a3
     ca6:	0ae7a023          	sw	a4,160(a5)
F:\文档\串口助手\ProtoThread\ProtoThread-Templates-main\CH573_PT_Template\obj/../Drivers/StdPeriphDriver/CH57x_gpio.c:39
            break;
     caa:	8082                	ret
F:\文档\串口助手\ProtoThread\ProtoThread-Templates-main\CH573_PT_Template\obj/../Drivers/StdPeriphDriver/CH57x_gpio.c:42
            R32_PA_PD_DRV |= pin;
     cac:	400017b7          	lui	a5,0x40001
     cb0:	0b47a703          	lw	a4,180(a5) # 400010b4 <_eusrstack+0x1fff90b4>
     cb4:	8f49                	or	a4,a4,a0
     cb6:	0ae7aa23          	sw	a4,180(a5)
F:\文档\串口助手\ProtoThread\ProtoThread-Templates-main\CH573_PT_Template\obj/../Drivers/StdPeriphDriver/CH57x_gpio.c:43
            R32_PA_PU     &= ~pin;
     cba:	0b07a703          	lw	a4,176(a5)
     cbe:	fff54513          	not	a0,a0
     cc2:	bf45                	j	c72 <GPIOA_ModeCfg+0x2e>
F:\文档\串口助手\ProtoThread\ProtoThread-Templates-main\CH573_PT_Template\obj/../Drivers/StdPeriphDriver/CH57x_gpio.c:48
            R32_PA_PD_DRV &= ~pin;
     cc4:	400017b7          	lui	a5,0x40001
     cc8:	0b47a683          	lw	a3,180(a5) # 400010b4 <_eusrstack+0x1fff90b4>
     ccc:	fff54713          	not	a4,a0
     cd0:	8f75                	and	a4,a4,a3
F:\文档\串口助手\ProtoThread\ProtoThread-Templates-main\CH573_PT_Template\obj/../Drivers/StdPeriphDriver/CH57x_gpio.c:53
            R32_PA_PD_DRV |= pin;
     cd2:	0ae7aa23          	sw	a4,180(a5)
F:\文档\串口助手\ProtoThread\ProtoThread-Templates-main\CH573_PT_Template\obj/../Drivers/StdPeriphDriver/CH57x_gpio.c:54
            R32_PA_DIR    |= pin;
     cd6:	0a07a703          	lw	a4,160(a5)
     cda:	8d59                	or	a0,a0,a4
     cdc:	b74d                	j	c7e <GPIOA_ModeCfg+0x3a>
F:\文档\串口助手\ProtoThread\ProtoThread-Templates-main\CH573_PT_Template\obj/../Drivers/StdPeriphDriver/CH57x_gpio.c:53
            R32_PA_PD_DRV |= pin;
     cde:	400017b7          	lui	a5,0x40001
     ce2:	0b47a703          	lw	a4,180(a5) # 400010b4 <_eusrstack+0x1fff90b4>
     ce6:	8f49                	or	a4,a4,a0
     ce8:	b7ed                	j	cd2 <GPIOA_ModeCfg+0x8e>

00000cea <GetSysClock>:
GetSysClock():
F:\文档\串口助手\ProtoThread\ProtoThread-Templates-main\CH573_PT_Template\obj/../Drivers/StdPeriphDriver/CH57x_sys.c:74
  rev = R16_CLK_SYS_CFG & 0xff;
     cea:	400017b7          	lui	a5,0x40001
     cee:	0087d503          	lhu	a0,8(a5) # 40001008 <_eusrstack+0x1fff9008>
     cf2:	0542                	slli	a0,a0,0x10
     cf4:	8141                	srli	a0,a0,0x10
F:\文档\串口助手\ProtoThread\ProtoThread-Templates-main\CH573_PT_Template\obj/../Drivers/StdPeriphDriver/CH57x_sys.c:75
  if( (rev & 0x40) == (0<<6) ){       // 32M进行分频
     cf6:	04057793          	andi	a5,a0,64
     cfa:	eb91                	bnez	a5,d0e <GetSysClock+0x24>
F:\文档\串口助手\ProtoThread\ProtoThread-Templates-main\CH573_PT_Template\obj/../Drivers/StdPeriphDriver/CH57x_sys.c:76
      return (32000000/(rev&0x1f));
     cfc:	01f57793          	andi	a5,a0,31
     d00:	01e85537          	lui	a0,0x1e85
F:\文档\串口助手\ProtoThread\ProtoThread-Templates-main\CH573_PT_Template\obj/../Drivers/StdPeriphDriver/CH57x_sys.c:79
      return (480000000/(rev&0x1f));
     d04:	80050513          	addi	a0,a0,-2048 # 1e84800 <_data_lma+0x1e82e1c>
     d08:	02f54533          	div	a0,a0,a5
     d0c:	8082                	ret
F:\文档\串口助手\ProtoThread\ProtoThread-Templates-main\CH573_PT_Template\obj/../Drivers/StdPeriphDriver/CH57x_sys.c:78
  else if( (rev & RB_CLK_SYS_MOD) == (1<<6) ){    // PLL进行分频
     d0e:	0c057793          	andi	a5,a0,192
     d12:	04000713          	li	a4,64
     d16:	00e79763          	bne	a5,a4,d24 <GetSysClock+0x3a>
F:\文档\串口助手\ProtoThread\ProtoThread-Templates-main\CH573_PT_Template\obj/../Drivers/StdPeriphDriver/CH57x_sys.c:79
      return (480000000/(rev&0x1f));
     d1a:	01f57793          	andi	a5,a0,31
     d1e:	1c9c4537          	lui	a0,0x1c9c4
     d22:	b7cd                	j	d04 <GetSysClock+0x1a>
F:\文档\串口助手\ProtoThread\ProtoThread-Templates-main\CH573_PT_Template\obj/../Drivers/StdPeriphDriver/CH57x_sys.c:82
    return (32000);
     d24:	6521                	lui	a0,0x8
     d26:	d0050513          	addi	a0,a0,-768 # 7d00 <_data_lma+0x631c>
F:\文档\串口助手\ProtoThread\ProtoThread-Templates-main\CH573_PT_Template\obj/../Drivers/StdPeriphDriver/CH57x_sys.c:84
}
     d2a:	8082                	ret

00000d2c <_write>:
_write():
F:\文档\串口助手\ProtoThread\ProtoThread-Templates-main\CH573_PT_Template\obj/../Drivers/StdPeriphDriver/CH57x_sys.c:279

#ifdef DEBUG
int _write(int fd, char *buf, int size)
{
	int i;
	for(i=0; i<size; i++)
     d2c:	4781                	li	a5,0
F:\文档\串口助手\ProtoThread\ProtoThread-Templates-main\CH573_PT_Template\obj/../Drivers/StdPeriphDriver/CH57x_sys.c:285
	{
#if  DEBUG == Debug_UART0
		while( R8_UART0_TFC == UART_FIFO_SIZE );                        /* 等待数据发送 */
		R8_UART0_THR = *buf++;                                               /* 发送数据 */
#elif DEBUG == Debug_UART1       
		while( R8_UART1_TFC == UART_FIFO_SIZE );                        /* 等待数据发送 */
     d2e:	40003737          	lui	a4,0x40003
     d32:	46a1                	li	a3,8
F:\文档\串口助手\ProtoThread\ProtoThread-Templates-main\CH573_PT_Template\obj/../Drivers/StdPeriphDriver/CH57x_sys.c:279 (discriminator 1)
	for(i=0; i<size; i++)
     d34:	00c7c463          	blt	a5,a2,d3c <_write+0x10>
F:\文档\串口助手\ProtoThread\ProtoThread-Templates-main\CH573_PT_Template\obj/../Drivers/StdPeriphDriver/CH57x_sys.c:296
		while( R8_UART3_TFC == UART_FIFO_SIZE );                        /* 等待数据发送 */
		R8_UART3_THR = *buf++;                                               /* 发送数据 */
#endif
	}
	return size;
}
     d38:	8532                	mv	a0,a2
     d3a:	8082                	ret
F:\文档\串口助手\ProtoThread\ProtoThread-Templates-main\CH573_PT_Template\obj/../Drivers/StdPeriphDriver/CH57x_sys.c:285 (discriminator 1)
		while( R8_UART1_TFC == UART_FIFO_SIZE );                        /* 等待数据发送 */
     d3c:	40b74503          	lbu	a0,1035(a4) # 4000340b <_eusrstack+0x1fffb40b>
     d40:	fea68ee3          	beq	a3,a0,d3c <_write+0x10>
F:\文档\串口助手\ProtoThread\ProtoThread-Templates-main\CH573_PT_Template\obj/../Drivers/StdPeriphDriver/CH57x_sys.c:286 (discriminator 2)
		R8_UART1_THR = *buf++;                                               /* 发送数据 */
     d44:	00f58533          	add	a0,a1,a5
     d48:	00054503          	lbu	a0,0(a0)
F:\文档\串口助手\ProtoThread\ProtoThread-Templates-main\CH573_PT_Template\obj/../Drivers/StdPeriphDriver/CH57x_sys.c:279 (discriminator 2)
	for(i=0; i<size; i++)
     d4c:	0785                	addi	a5,a5,1
F:\文档\串口助手\ProtoThread\ProtoThread-Templates-main\CH573_PT_Template\obj/../Drivers/StdPeriphDriver/CH57x_sys.c:286 (discriminator 2)
		R8_UART1_THR = *buf++;                                               /* 发送数据 */
     d4e:	40a70423          	sb	a0,1032(a4)
     d52:	b7cd                	j	d34 <_write+0x8>

00000d54 <UART1_BaudRateCfg>:
UART1_BaudRateCfg():
F:\文档\串口助手\ProtoThread\ProtoThread-Templates-main\CH573_PT_Template\obj/../Drivers/StdPeriphDriver/CH57x_uart1.c:33
* Description    : 串口波特率配置
* Input          : 
* Return         : 
*******************************************************************************/
void UART1_BaudRateCfg( UINT32 baudrate )
{
     d54:	1141                	addi	sp,sp,-16
     d56:	c422                	sw	s0,8(sp)
     d58:	c606                	sw	ra,12(sp)
     d5a:	842a                	mv	s0,a0
F:\文档\串口助手\ProtoThread\ProtoThread-Templates-main\CH573_PT_Template\obj/../Drivers/StdPeriphDriver/CH57x_uart1.c:36
    UINT32	x;

   x = 10 * GetSysClock() / 8 / baudrate;
     d5c:	3779                	jal	cea <GetSysClock>
     d5e:	4729                	li	a4,10
     d60:	02e507b3          	mul	a5,a0,a4
F:\文档\串口助手\ProtoThread\ProtoThread-Templates-main\CH573_PT_Template\obj/../Drivers/StdPeriphDriver/CH57x_uart1.c:39
    x = ( x + 5 ) / 10;
    R16_UART1_DL = (UINT16)x;
}
     d64:	40b2                	lw	ra,12(sp)
F:\文档\串口助手\ProtoThread\ProtoThread-Templates-main\CH573_PT_Template\obj/../Drivers/StdPeriphDriver/CH57x_uart1.c:36
   x = 10 * GetSysClock() / 8 / baudrate;
     d66:	838d                	srli	a5,a5,0x3
     d68:	0287d7b3          	divu	a5,a5,s0
F:\文档\串口助手\ProtoThread\ProtoThread-Templates-main\CH573_PT_Template\obj/../Drivers/StdPeriphDriver/CH57x_uart1.c:39
}
     d6c:	4422                	lw	s0,8(sp)
F:\文档\串口助手\ProtoThread\ProtoThread-Templates-main\CH573_PT_Template\obj/../Drivers/StdPeriphDriver/CH57x_uart1.c:37
    x = ( x + 5 ) / 10;
     d6e:	0795                	addi	a5,a5,5
     d70:	02e7d7b3          	divu	a5,a5,a4
F:\文档\串口助手\ProtoThread\ProtoThread-Templates-main\CH573_PT_Template\obj/../Drivers/StdPeriphDriver/CH57x_uart1.c:38
    R16_UART1_DL = (UINT16)x;
     d74:	40003737          	lui	a4,0x40003
     d78:	07c2                	slli	a5,a5,0x10
     d7a:	83c1                	srli	a5,a5,0x10
     d7c:	40f71623          	sh	a5,1036(a4) # 4000340c <_eusrstack+0x1fffb40c>
F:\文档\串口助手\ProtoThread\ProtoThread-Templates-main\CH573_PT_Template\obj/../Drivers/StdPeriphDriver/CH57x_uart1.c:39
}
     d80:	0141                	addi	sp,sp,16
     d82:	8082                	ret

00000d84 <UART1_DefInit>:
UART1_DefInit():
F:\文档\串口助手\ProtoThread\ProtoThread-Templates-main\CH573_PT_Template\obj/../Drivers/StdPeriphDriver/CH57x_uart1.c:19
    UART1_BaudRateCfg( 115200 );
     d84:	6571                	lui	a0,0x1c
F:\文档\串口助手\ProtoThread\ProtoThread-Templates-main\CH573_PT_Template\obj/../Drivers/StdPeriphDriver/CH57x_uart1.c:18
{	
     d86:	1141                	addi	sp,sp,-16
F:\文档\串口助手\ProtoThread\ProtoThread-Templates-main\CH573_PT_Template\obj/../Drivers/StdPeriphDriver/CH57x_uart1.c:19
    UART1_BaudRateCfg( 115200 );
     d88:	20050513          	addi	a0,a0,512 # 1c200 <_data_lma+0x1a81c>
F:\文档\串口助手\ProtoThread\ProtoThread-Templates-main\CH573_PT_Template\obj/../Drivers/StdPeriphDriver/CH57x_uart1.c:18
{	
     d8c:	c606                	sw	ra,12(sp)
F:\文档\串口助手\ProtoThread\ProtoThread-Templates-main\CH573_PT_Template\obj/../Drivers/StdPeriphDriver/CH57x_uart1.c:19
    UART1_BaudRateCfg( 115200 );
     d8e:	37d9                	jal	d54 <UART1_BaudRateCfg>
F:\文档\串口助手\ProtoThread\ProtoThread-Templates-main\CH573_PT_Template\obj/../Drivers/StdPeriphDriver/CH57x_uart1.c:20
    R8_UART1_FCR = (2<<6) | RB_FCR_TX_FIFO_CLR | RB_FCR_RX_FIFO_CLR | RB_FCR_FIFO_EN;		// FIFO打开，触发点4字节
     d90:	400037b7          	lui	a5,0x40003
     d94:	f8700713          	li	a4,-121
     d98:	40e78123          	sb	a4,1026(a5) # 40003402 <_eusrstack+0x1fffb402>
F:\文档\串口助手\ProtoThread\ProtoThread-Templates-main\CH573_PT_Template\obj/../Drivers/StdPeriphDriver/CH57x_uart1.c:21
    R8_UART1_LCR = RB_LCR_WORD_SZ;	
     d9c:	470d                	li	a4,3
     d9e:	40e781a3          	sb	a4,1027(a5)
F:\文档\串口助手\ProtoThread\ProtoThread-Templates-main\CH573_PT_Template\obj/../Drivers/StdPeriphDriver/CH57x_uart1.c:22
    R8_UART1_IER = RB_IER_TXD_EN;
     da2:	04000713          	li	a4,64
     da6:	40e780a3          	sb	a4,1025(a5)
F:\文档\串口助手\ProtoThread\ProtoThread-Templates-main\CH573_PT_Template\obj/../Drivers/StdPeriphDriver/CH57x_uart1.c:23
    R8_UART1_DIV = 1;	
     daa:	4705                	li	a4,1
     dac:	40e78723          	sb	a4,1038(a5)
F:\文档\串口助手\ProtoThread\ProtoThread-Templates-main\CH573_PT_Template\obj/../Drivers/StdPeriphDriver/CH57x_uart1.c:24
}
     db0:	40b2                	lw	ra,12(sp)
     db2:	0141                	addi	sp,sp,16
     db4:	8082                	ret

00000db6 <UART1_SendString>:
UART1_SendString():
F:\文档\串口助手\ProtoThread\ProtoThread-Templates-main\CH573_PT_Template\obj/../Drivers/StdPeriphDriver/CH57x_uart1.c:103
{
    UINT16 len = l;

    while(len)
    {
        if(R8_UART1_TFC != UART_FIFO_SIZE)
     db6:	400037b7          	lui	a5,0x40003
     dba:	4721                	li	a4,8
     dbc:	400036b7          	lui	a3,0x40003
F:\文档\串口助手\ProtoThread\ProtoThread-Templates-main\CH573_PT_Template\obj/../Drivers/StdPeriphDriver/CH57x_uart1.c:101
    while(len)
     dc0:	e191                	bnez	a1,dc4 <UART1_SendString+0xe>
F:\文档\串口助手\ProtoThread\ProtoThread-Templates-main\CH573_PT_Template\obj/../Drivers/StdPeriphDriver/CH57x_uart1.c:109
        {
            R8_UART1_THR = *buf++;
            len--;
        }		
    }
}
     dc2:	8082                	ret
F:\文档\串口助手\ProtoThread\ProtoThread-Templates-main\CH573_PT_Template\obj/../Drivers/StdPeriphDriver/CH57x_uart1.c:103
        if(R8_UART1_TFC != UART_FIFO_SIZE)
     dc4:	40b7c603          	lbu	a2,1035(a5) # 4000340b <_eusrstack+0x1fffb40b>
     dc8:	fec70ce3          	beq	a4,a2,dc0 <UART1_SendString+0xa>
F:\文档\串口助手\ProtoThread\ProtoThread-Templates-main\CH573_PT_Template\obj/../Drivers/StdPeriphDriver/CH57x_uart1.c:105
            R8_UART1_THR = *buf++;
     dcc:	0505                	addi	a0,a0,1
     dce:	fff54603          	lbu	a2,-1(a0)
F:\文档\串口助手\ProtoThread\ProtoThread-Templates-main\CH573_PT_Template\obj/../Drivers/StdPeriphDriver/CH57x_uart1.c:106
            len--;
     dd2:	15fd                	addi	a1,a1,-1
     dd4:	05c2                	slli	a1,a1,0x10
F:\文档\串口助手\ProtoThread\ProtoThread-Templates-main\CH573_PT_Template\obj/../Drivers/StdPeriphDriver/CH57x_uart1.c:105
            R8_UART1_THR = *buf++;
     dd6:	40c68423          	sb	a2,1032(a3) # 40003408 <_eusrstack+0x1fffb408>
F:\文档\串口助手\ProtoThread\ProtoThread-Templates-main\CH573_PT_Template\obj/../Drivers/StdPeriphDriver/CH57x_uart1.c:106
            len--;
     dda:	81c1                	srli	a1,a1,0x10
     ddc:	b7d5                	j	dc0 <UART1_SendString+0xa>

00000dde <UART1_RecvString>:
UART1_RecvString():
F:\文档\串口助手\ProtoThread\ProtoThread-Templates-main\CH573_PT_Template\obj/../Drivers/StdPeriphDriver/CH57x_uart1.c:121
*******************************************************************************/
UINT16 UART1_RecvString( PUINT8 buf )
{
    UINT16 len = 0;

    while( R8_UART1_RFC )
     dde:	4781                	li	a5,0
     de0:	400036b7          	lui	a3,0x40003
     de4:	40a6c703          	lbu	a4,1034(a3) # 4000340a <_eusrstack+0x1fffb40a>
     de8:	01079613          	slli	a2,a5,0x10
     dec:	8241                	srli	a2,a2,0x10
     dee:	0ff77713          	andi	a4,a4,255
     df2:	e319                	bnez	a4,df8 <UART1_RecvString+0x1a>
F:\文档\串口助手\ProtoThread\ProtoThread-Templates-main\CH573_PT_Template\obj/../Drivers/StdPeriphDriver/CH57x_uart1.c:128
        *buf++ = R8_UART1_RBR;
        len ++;
    }

    return (len);
}
     df4:	8532                	mv	a0,a2
     df6:	8082                	ret
F:\文档\串口助手\ProtoThread\ProtoThread-Templates-main\CH573_PT_Template\obj/../Drivers/StdPeriphDriver/CH57x_uart1.c:123
        *buf++ = R8_UART1_RBR;
     df8:	4086c603          	lbu	a2,1032(a3)
     dfc:	00f50733          	add	a4,a0,a5
     e00:	0785                	addi	a5,a5,1
     e02:	00c70023          	sb	a2,0(a4)
F:\文档\串口助手\ProtoThread\ProtoThread-Templates-main\CH573_PT_Template\obj/../Drivers/StdPeriphDriver/CH57x_uart1.c:124
        len ++;
     e06:	bff9                	j	de4 <UART1_RecvString+0x6>

00000e08 <_puts_r>:
_puts_r():
     e08:	1101                	addi	sp,sp,-32
     e0a:	ca26                	sw	s1,20(sp)
     e0c:	c84a                	sw	s2,16(sp)
     e0e:	ce06                	sw	ra,28(sp)
     e10:	cc22                	sw	s0,24(sp)
     e12:	c64e                	sw	s3,12(sp)
     e14:	c452                	sw	s4,8(sp)
     e16:	84aa                	mv	s1,a0
     e18:	892e                	mv	s2,a1
     e1a:	c501                	beqz	a0,e22 <_puts_r+0x1a>
     e1c:	4d1c                	lw	a5,24(a0)
     e1e:	e391                	bnez	a5,e22 <_puts_r+0x1a>
     e20:	29ed                	jal	131a <__sinit>
     e22:	4c9c                	lw	a5,24(s1)
     e24:	4480                	lw	s0,8(s1)
     e26:	e399                	bnez	a5,e2c <_puts_r+0x24>
     e28:	8526                	mv	a0,s1
     e2a:	29c5                	jal	131a <__sinit>
     e2c:	00001797          	auipc	a5,0x1
     e30:	b7478793          	addi	a5,a5,-1164 # 19a0 <__sf_fake_stdin>
     e34:	02f41c63          	bne	s0,a5,e6c <_puts_r+0x64>
     e38:	40c0                	lw	s0,4(s1)
     e3a:	00c45783          	lhu	a5,12(s0)
     e3e:	8ba1                	andi	a5,a5,8
     e40:	c7b1                	beqz	a5,e8c <_puts_r+0x84>
     e42:	481c                	lw	a5,16(s0)
     e44:	c7a1                	beqz	a5,e8c <_puts_r+0x84>
     e46:	59fd                	li	s3,-1
     e48:	4a29                	li	s4,10
     e4a:	441c                	lw	a5,8(s0)
     e4c:	00094583          	lbu	a1,0(s2)
     e50:	17fd                	addi	a5,a5,-1
     e52:	e9b1                	bnez	a1,ea6 <_puts_r+0x9e>
     e54:	c41c                	sw	a5,8(s0)
     e56:	0607de63          	bgez	a5,ed2 <_puts_r+0xca>
     e5a:	8622                	mv	a2,s0
     e5c:	45a9                	li	a1,10
     e5e:	8526                	mv	a0,s1
     e60:	2841                	jal	ef0 <__swbuf_r>
     e62:	57fd                	li	a5,-1
     e64:	02f50863          	beq	a0,a5,e94 <_puts_r+0x8c>
     e68:	4529                	li	a0,10
     e6a:	a035                	j	e96 <_puts_r+0x8e>
     e6c:	00001797          	auipc	a5,0x1
     e70:	b5478793          	addi	a5,a5,-1196 # 19c0 <__sf_fake_stdout>
     e74:	00f41463          	bne	s0,a5,e7c <_puts_r+0x74>
     e78:	4480                	lw	s0,8(s1)
     e7a:	b7c1                	j	e3a <_puts_r+0x32>
     e7c:	00001797          	auipc	a5,0x1
     e80:	b0478793          	addi	a5,a5,-1276 # 1980 <__sf_fake_stderr>
     e84:	faf41be3          	bne	s0,a5,e3a <_puts_r+0x32>
     e88:	44c0                	lw	s0,12(s1)
     e8a:	bf45                	j	e3a <_puts_r+0x32>
     e8c:	85a2                	mv	a1,s0
     e8e:	8526                	mv	a0,s1
     e90:	2205                	jal	fb0 <__swsetup_r>
     e92:	d955                	beqz	a0,e46 <_puts_r+0x3e>
     e94:	557d                	li	a0,-1
     e96:	40f2                	lw	ra,28(sp)
     e98:	4462                	lw	s0,24(sp)
     e9a:	44d2                	lw	s1,20(sp)
     e9c:	4942                	lw	s2,16(sp)
     e9e:	49b2                	lw	s3,12(sp)
     ea0:	4a22                	lw	s4,8(sp)
     ea2:	6105                	addi	sp,sp,32
     ea4:	8082                	ret
     ea6:	c41c                	sw	a5,8(s0)
     ea8:	0905                	addi	s2,s2,1
     eaa:	0007d763          	bgez	a5,eb8 <_puts_r+0xb0>
     eae:	4c18                	lw	a4,24(s0)
     eb0:	00e7cb63          	blt	a5,a4,ec6 <_puts_r+0xbe>
     eb4:	01458963          	beq	a1,s4,ec6 <_puts_r+0xbe>
     eb8:	401c                	lw	a5,0(s0)
     eba:	00178713          	addi	a4,a5,1
     ebe:	c018                	sw	a4,0(s0)
     ec0:	00b78023          	sb	a1,0(a5)
     ec4:	b759                	j	e4a <_puts_r+0x42>
     ec6:	8622                	mv	a2,s0
     ec8:	8526                	mv	a0,s1
     eca:	201d                	jal	ef0 <__swbuf_r>
     ecc:	f7351fe3          	bne	a0,s3,e4a <_puts_r+0x42>
     ed0:	b7d1                	j	e94 <_puts_r+0x8c>
     ed2:	401c                	lw	a5,0(s0)
     ed4:	00178713          	addi	a4,a5,1
     ed8:	c018                	sw	a4,0(s0)
     eda:	4729                	li	a4,10
     edc:	00e78023          	sb	a4,0(a5)
     ee0:	b761                	j	e68 <_puts_r+0x60>

00000ee2 <puts>:
puts():
     ee2:	20003797          	auipc	a5,0x20003
     ee6:	20678793          	addi	a5,a5,518 # 200040e8 <_impure_ptr>
     eea:	85aa                	mv	a1,a0
     eec:	4388                	lw	a0,0(a5)
     eee:	bf29                	j	e08 <_puts_r>

00000ef0 <__swbuf_r>:
__swbuf_r():
     ef0:	1101                	addi	sp,sp,-32
     ef2:	cc22                	sw	s0,24(sp)
     ef4:	ca26                	sw	s1,20(sp)
     ef6:	c84a                	sw	s2,16(sp)
     ef8:	ce06                	sw	ra,28(sp)
     efa:	c64e                	sw	s3,12(sp)
     efc:	84aa                	mv	s1,a0
     efe:	892e                	mv	s2,a1
     f00:	8432                	mv	s0,a2
     f02:	c501                	beqz	a0,f0a <__swbuf_r+0x1a>
     f04:	4d1c                	lw	a5,24(a0)
     f06:	e391                	bnez	a5,f0a <__swbuf_r+0x1a>
     f08:	2909                	jal	131a <__sinit>
     f0a:	00001797          	auipc	a5,0x1
     f0e:	a9678793          	addi	a5,a5,-1386 # 19a0 <__sf_fake_stdin>
     f12:	06f41963          	bne	s0,a5,f84 <__swbuf_r+0x94>
     f16:	40c0                	lw	s0,4(s1)
     f18:	4c1c                	lw	a5,24(s0)
     f1a:	c41c                	sw	a5,8(s0)
     f1c:	00c45783          	lhu	a5,12(s0)
     f20:	8ba1                	andi	a5,a5,8
     f22:	c3c9                	beqz	a5,fa4 <__swbuf_r+0xb4>
     f24:	481c                	lw	a5,16(s0)
     f26:	cfbd                	beqz	a5,fa4 <__swbuf_r+0xb4>
     f28:	481c                	lw	a5,16(s0)
     f2a:	4008                	lw	a0,0(s0)
     f2c:	0ff97993          	andi	s3,s2,255
     f30:	0ff97913          	andi	s2,s2,255
     f34:	8d1d                	sub	a0,a0,a5
     f36:	485c                	lw	a5,20(s0)
     f38:	00f54663          	blt	a0,a5,f44 <__swbuf_r+0x54>
     f3c:	85a2                	mv	a1,s0
     f3e:	8526                	mv	a0,s1
     f40:	2c75                	jal	11fc <_fflush_r>
     f42:	e52d                	bnez	a0,fac <__swbuf_r+0xbc>
     f44:	441c                	lw	a5,8(s0)
     f46:	0505                	addi	a0,a0,1
     f48:	17fd                	addi	a5,a5,-1
     f4a:	c41c                	sw	a5,8(s0)
     f4c:	401c                	lw	a5,0(s0)
     f4e:	00178713          	addi	a4,a5,1
     f52:	c018                	sw	a4,0(s0)
     f54:	01378023          	sb	s3,0(a5)
     f58:	485c                	lw	a5,20(s0)
     f5a:	00a78963          	beq	a5,a0,f6c <__swbuf_r+0x7c>
     f5e:	00c45783          	lhu	a5,12(s0)
     f62:	8b85                	andi	a5,a5,1
     f64:	cb81                	beqz	a5,f74 <__swbuf_r+0x84>
     f66:	47a9                	li	a5,10
     f68:	00f91663          	bne	s2,a5,f74 <__swbuf_r+0x84>
     f6c:	85a2                	mv	a1,s0
     f6e:	8526                	mv	a0,s1
     f70:	2471                	jal	11fc <_fflush_r>
     f72:	ed0d                	bnez	a0,fac <__swbuf_r+0xbc>
     f74:	40f2                	lw	ra,28(sp)
     f76:	4462                	lw	s0,24(sp)
     f78:	854a                	mv	a0,s2
     f7a:	44d2                	lw	s1,20(sp)
     f7c:	4942                	lw	s2,16(sp)
     f7e:	49b2                	lw	s3,12(sp)
     f80:	6105                	addi	sp,sp,32
     f82:	8082                	ret
     f84:	00001797          	auipc	a5,0x1
     f88:	a3c78793          	addi	a5,a5,-1476 # 19c0 <__sf_fake_stdout>
     f8c:	00f41463          	bne	s0,a5,f94 <__swbuf_r+0xa4>
     f90:	4480                	lw	s0,8(s1)
     f92:	b759                	j	f18 <__swbuf_r+0x28>
     f94:	00001797          	auipc	a5,0x1
     f98:	9ec78793          	addi	a5,a5,-1556 # 1980 <__sf_fake_stderr>
     f9c:	f6f41ee3          	bne	s0,a5,f18 <__swbuf_r+0x28>
     fa0:	44c0                	lw	s0,12(s1)
     fa2:	bf9d                	j	f18 <__swbuf_r+0x28>
     fa4:	85a2                	mv	a1,s0
     fa6:	8526                	mv	a0,s1
     fa8:	2021                	jal	fb0 <__swsetup_r>
     faa:	dd3d                	beqz	a0,f28 <__swbuf_r+0x38>
     fac:	597d                	li	s2,-1
     fae:	b7d9                	j	f74 <__swbuf_r+0x84>

00000fb0 <__swsetup_r>:
__swsetup_r():
     fb0:	1141                	addi	sp,sp,-16
     fb2:	20003797          	auipc	a5,0x20003
     fb6:	13678793          	addi	a5,a5,310 # 200040e8 <_impure_ptr>
     fba:	c226                	sw	s1,4(sp)
     fbc:	4384                	lw	s1,0(a5)
     fbe:	c422                	sw	s0,8(sp)
     fc0:	c04a                	sw	s2,0(sp)
     fc2:	c606                	sw	ra,12(sp)
     fc4:	892a                	mv	s2,a0
     fc6:	842e                	mv	s0,a1
     fc8:	c489                	beqz	s1,fd2 <__swsetup_r+0x22>
     fca:	4c9c                	lw	a5,24(s1)
     fcc:	e399                	bnez	a5,fd2 <__swsetup_r+0x22>
     fce:	8526                	mv	a0,s1
     fd0:	26a9                	jal	131a <__sinit>
     fd2:	00001797          	auipc	a5,0x1
     fd6:	9ce78793          	addi	a5,a5,-1586 # 19a0 <__sf_fake_stdin>
     fda:	02f41c63          	bne	s0,a5,1012 <__swsetup_r+0x62>
     fde:	40c0                	lw	s0,4(s1)
     fe0:	00c41703          	lh	a4,12(s0)
     fe4:	01071793          	slli	a5,a4,0x10
     fe8:	83c1                	srli	a5,a5,0x10
     fea:	0087f693          	andi	a3,a5,8
     fee:	eeb5                	bnez	a3,106a <__swsetup_r+0xba>
     ff0:	0107f693          	andi	a3,a5,16
     ff4:	ee9d                	bnez	a3,1032 <__swsetup_r+0x82>
     ff6:	47a5                	li	a5,9
     ff8:	00f92023          	sw	a5,0(s2)
     ffc:	04076713          	ori	a4,a4,64
    1000:	00e41623          	sh	a4,12(s0)
    1004:	557d                	li	a0,-1
    1006:	40b2                	lw	ra,12(sp)
    1008:	4422                	lw	s0,8(sp)
    100a:	4492                	lw	s1,4(sp)
    100c:	4902                	lw	s2,0(sp)
    100e:	0141                	addi	sp,sp,16
    1010:	8082                	ret
    1012:	00001797          	auipc	a5,0x1
    1016:	9ae78793          	addi	a5,a5,-1618 # 19c0 <__sf_fake_stdout>
    101a:	00f41463          	bne	s0,a5,1022 <__swsetup_r+0x72>
    101e:	4480                	lw	s0,8(s1)
    1020:	b7c1                	j	fe0 <__swsetup_r+0x30>
    1022:	00001797          	auipc	a5,0x1
    1026:	95e78793          	addi	a5,a5,-1698 # 1980 <__sf_fake_stderr>
    102a:	faf41be3          	bne	s0,a5,fe0 <__swsetup_r+0x30>
    102e:	44c0                	lw	s0,12(s1)
    1030:	bf45                	j	fe0 <__swsetup_r+0x30>
    1032:	8b91                	andi	a5,a5,4
    1034:	c78d                	beqz	a5,105e <__swsetup_r+0xae>
    1036:	584c                	lw	a1,52(s0)
    1038:	c989                	beqz	a1,104a <__swsetup_r+0x9a>
    103a:	04440793          	addi	a5,s0,68
    103e:	00f58463          	beq	a1,a5,1046 <__swsetup_r+0x96>
    1042:	854a                	mv	a0,s2
    1044:	2381                	jal	1584 <_free_r>
    1046:	02042a23          	sw	zero,52(s0)
    104a:	00c45783          	lhu	a5,12(s0)
    104e:	00042223          	sw	zero,4(s0)
    1052:	fdb7f793          	andi	a5,a5,-37
    1056:	00f41623          	sh	a5,12(s0)
    105a:	481c                	lw	a5,16(s0)
    105c:	c01c                	sw	a5,0(s0)
    105e:	00c45783          	lhu	a5,12(s0)
    1062:	0087e793          	ori	a5,a5,8
    1066:	00f41623          	sh	a5,12(s0)
    106a:	481c                	lw	a5,16(s0)
    106c:	ef81                	bnez	a5,1084 <__swsetup_r+0xd4>
    106e:	00c45783          	lhu	a5,12(s0)
    1072:	20000713          	li	a4,512
    1076:	2807f793          	andi	a5,a5,640
    107a:	00e78563          	beq	a5,a4,1084 <__swsetup_r+0xd4>
    107e:	85a2                	mv	a1,s0
    1080:	854a                	mv	a0,s2
    1082:	219d                	jal	14e8 <__smakebuf_r>
    1084:	00c45783          	lhu	a5,12(s0)
    1088:	0017f713          	andi	a4,a5,1
    108c:	c705                	beqz	a4,10b4 <__swsetup_r+0x104>
    108e:	485c                	lw	a5,20(s0)
    1090:	00042423          	sw	zero,8(s0)
    1094:	40f007b3          	neg	a5,a5
    1098:	cc1c                	sw	a5,24(s0)
    109a:	481c                	lw	a5,16(s0)
    109c:	4501                	li	a0,0
    109e:	f7a5                	bnez	a5,1006 <__swsetup_r+0x56>
    10a0:	00c41783          	lh	a5,12(s0)
    10a4:	0807f713          	andi	a4,a5,128
    10a8:	df39                	beqz	a4,1006 <__swsetup_r+0x56>
    10aa:	0407e793          	ori	a5,a5,64
    10ae:	00f41623          	sh	a5,12(s0)
    10b2:	bf89                	j	1004 <__swsetup_r+0x54>
    10b4:	8b89                	andi	a5,a5,2
    10b6:	4701                	li	a4,0
    10b8:	e391                	bnez	a5,10bc <__swsetup_r+0x10c>
    10ba:	4858                	lw	a4,20(s0)
    10bc:	c418                	sw	a4,8(s0)
    10be:	bff1                	j	109a <__swsetup_r+0xea>

000010c0 <__sflush_r>:
__sflush_r():
    10c0:	00c5d783          	lhu	a5,12(a1)
    10c4:	1101                	addi	sp,sp,-32
    10c6:	cc22                	sw	s0,24(sp)
    10c8:	ca26                	sw	s1,20(sp)
    10ca:	ce06                	sw	ra,28(sp)
    10cc:	c84a                	sw	s2,16(sp)
    10ce:	c64e                	sw	s3,12(sp)
    10d0:	0087f713          	andi	a4,a5,8
    10d4:	84aa                	mv	s1,a0
    10d6:	842e                	mv	s0,a1
    10d8:	ef71                	bnez	a4,11b4 <__sflush_r+0xf4>
    10da:	41d8                	lw	a4,4(a1)
    10dc:	00e04d63          	bgtz	a4,10f6 <__sflush_r+0x36>
    10e0:	41b8                	lw	a4,64(a1)
    10e2:	00e04a63          	bgtz	a4,10f6 <__sflush_r+0x36>
    10e6:	4501                	li	a0,0
    10e8:	40f2                	lw	ra,28(sp)
    10ea:	4462                	lw	s0,24(sp)
    10ec:	44d2                	lw	s1,20(sp)
    10ee:	4942                	lw	s2,16(sp)
    10f0:	49b2                	lw	s3,12(sp)
    10f2:	6105                	addi	sp,sp,32
    10f4:	8082                	ret
    10f6:	5458                	lw	a4,44(s0)
    10f8:	d77d                	beqz	a4,10e6 <__sflush_r+0x26>
    10fa:	0004a903          	lw	s2,0(s1)
    10fe:	01379693          	slli	a3,a5,0x13
    1102:	0004a023          	sw	zero,0(s1)
    1106:	0606dd63          	bgez	a3,1180 <__sflush_r+0xc0>
    110a:	4870                	lw	a2,84(s0)
    110c:	00c45783          	lhu	a5,12(s0)
    1110:	8b91                	andi	a5,a5,4
    1112:	c799                	beqz	a5,1120 <__sflush_r+0x60>
    1114:	405c                	lw	a5,4(s0)
    1116:	8e1d                	sub	a2,a2,a5
    1118:	585c                	lw	a5,52(s0)
    111a:	c399                	beqz	a5,1120 <__sflush_r+0x60>
    111c:	403c                	lw	a5,64(s0)
    111e:	8e1d                	sub	a2,a2,a5
    1120:	545c                	lw	a5,44(s0)
    1122:	500c                	lw	a1,32(s0)
    1124:	4681                	li	a3,0
    1126:	8526                	mv	a0,s1
    1128:	9782                	jalr	a5
    112a:	57fd                	li	a5,-1
    112c:	00c45703          	lhu	a4,12(s0)
    1130:	00f51d63          	bne	a0,a5,114a <__sflush_r+0x8a>
    1134:	4094                	lw	a3,0(s1)
    1136:	47f5                	li	a5,29
    1138:	06d7e863          	bltu	a5,a3,11a8 <__sflush_r+0xe8>
    113c:	204007b7          	lui	a5,0x20400
    1140:	0785                	addi	a5,a5,1
    1142:	00d7d7b3          	srl	a5,a5,a3
    1146:	8b85                	andi	a5,a5,1
    1148:	c3a5                	beqz	a5,11a8 <__sflush_r+0xe8>
    114a:	481c                	lw	a5,16(s0)
    114c:	00042223          	sw	zero,4(s0)
    1150:	c01c                	sw	a5,0(s0)
    1152:	01371793          	slli	a5,a4,0x13
    1156:	0007d863          	bgez	a5,1166 <__sflush_r+0xa6>
    115a:	57fd                	li	a5,-1
    115c:	00f51463          	bne	a0,a5,1164 <__sflush_r+0xa4>
    1160:	409c                	lw	a5,0(s1)
    1162:	e391                	bnez	a5,1166 <__sflush_r+0xa6>
    1164:	c868                	sw	a0,84(s0)
    1166:	584c                	lw	a1,52(s0)
    1168:	0124a023          	sw	s2,0(s1)
    116c:	ddad                	beqz	a1,10e6 <__sflush_r+0x26>
    116e:	04440793          	addi	a5,s0,68
    1172:	00f58463          	beq	a1,a5,117a <__sflush_r+0xba>
    1176:	8526                	mv	a0,s1
    1178:	2131                	jal	1584 <_free_r>
    117a:	02042a23          	sw	zero,52(s0)
    117e:	b7a5                	j	10e6 <__sflush_r+0x26>
    1180:	500c                	lw	a1,32(s0)
    1182:	4601                	li	a2,0
    1184:	4685                	li	a3,1
    1186:	8526                	mv	a0,s1
    1188:	9702                	jalr	a4
    118a:	57fd                	li	a5,-1
    118c:	862a                	mv	a2,a0
    118e:	f6f51fe3          	bne	a0,a5,110c <__sflush_r+0x4c>
    1192:	409c                	lw	a5,0(s1)
    1194:	dfa5                	beqz	a5,110c <__sflush_r+0x4c>
    1196:	4775                	li	a4,29
    1198:	00e78563          	beq	a5,a4,11a2 <__sflush_r+0xe2>
    119c:	4759                	li	a4,22
    119e:	04e79463          	bne	a5,a4,11e6 <__sflush_r+0x126>
    11a2:	0124a023          	sw	s2,0(s1)
    11a6:	b781                	j	10e6 <__sflush_r+0x26>
    11a8:	04076713          	ori	a4,a4,64
    11ac:	00e41623          	sh	a4,12(s0)
    11b0:	557d                	li	a0,-1
    11b2:	bf1d                	j	10e8 <__sflush_r+0x28>
    11b4:	0105a983          	lw	s3,16(a1)
    11b8:	f20987e3          	beqz	s3,10e6 <__sflush_r+0x26>
    11bc:	0005a903          	lw	s2,0(a1)
    11c0:	8b8d                	andi	a5,a5,3
    11c2:	0135a023          	sw	s3,0(a1)
    11c6:	41390933          	sub	s2,s2,s3
    11ca:	4701                	li	a4,0
    11cc:	e391                	bnez	a5,11d0 <__sflush_r+0x110>
    11ce:	49d8                	lw	a4,20(a1)
    11d0:	c418                	sw	a4,8(s0)
    11d2:	f1205ae3          	blez	s2,10e6 <__sflush_r+0x26>
    11d6:	541c                	lw	a5,40(s0)
    11d8:	500c                	lw	a1,32(s0)
    11da:	86ca                	mv	a3,s2
    11dc:	864e                	mv	a2,s3
    11de:	8526                	mv	a0,s1
    11e0:	9782                	jalr	a5
    11e2:	00a04963          	bgtz	a0,11f4 <__sflush_r+0x134>
    11e6:	00c45783          	lhu	a5,12(s0)
    11ea:	0407e793          	ori	a5,a5,64
    11ee:	00f41623          	sh	a5,12(s0)
    11f2:	bf7d                	j	11b0 <__sflush_r+0xf0>
    11f4:	99aa                	add	s3,s3,a0
    11f6:	40a90933          	sub	s2,s2,a0
    11fa:	bfe1                	j	11d2 <__sflush_r+0x112>

000011fc <_fflush_r>:
_fflush_r():
    11fc:	499c                	lw	a5,16(a1)
    11fe:	cfb9                	beqz	a5,125c <_fflush_r+0x60>
    1200:	1101                	addi	sp,sp,-32
    1202:	cc22                	sw	s0,24(sp)
    1204:	ce06                	sw	ra,28(sp)
    1206:	842a                	mv	s0,a0
    1208:	c511                	beqz	a0,1214 <_fflush_r+0x18>
    120a:	4d1c                	lw	a5,24(a0)
    120c:	e781                	bnez	a5,1214 <_fflush_r+0x18>
    120e:	c62e                	sw	a1,12(sp)
    1210:	2229                	jal	131a <__sinit>
    1212:	45b2                	lw	a1,12(sp)
    1214:	00000797          	auipc	a5,0x0
    1218:	78c78793          	addi	a5,a5,1932 # 19a0 <__sf_fake_stdin>
    121c:	00f59b63          	bne	a1,a5,1232 <_fflush_r+0x36>
    1220:	404c                	lw	a1,4(s0)
    1222:	00c59783          	lh	a5,12(a1)
    1226:	c795                	beqz	a5,1252 <_fflush_r+0x56>
    1228:	8522                	mv	a0,s0
    122a:	4462                	lw	s0,24(sp)
    122c:	40f2                	lw	ra,28(sp)
    122e:	6105                	addi	sp,sp,32
    1230:	bd41                	j	10c0 <__sflush_r>
    1232:	00000797          	auipc	a5,0x0
    1236:	78e78793          	addi	a5,a5,1934 # 19c0 <__sf_fake_stdout>
    123a:	00f59463          	bne	a1,a5,1242 <_fflush_r+0x46>
    123e:	440c                	lw	a1,8(s0)
    1240:	b7cd                	j	1222 <_fflush_r+0x26>
    1242:	00000797          	auipc	a5,0x0
    1246:	73e78793          	addi	a5,a5,1854 # 1980 <__sf_fake_stderr>
    124a:	fcf59ce3          	bne	a1,a5,1222 <_fflush_r+0x26>
    124e:	444c                	lw	a1,12(s0)
    1250:	bfc9                	j	1222 <_fflush_r+0x26>
    1252:	40f2                	lw	ra,28(sp)
    1254:	4462                	lw	s0,24(sp)
    1256:	4501                	li	a0,0
    1258:	6105                	addi	sp,sp,32
    125a:	8082                	ret
    125c:	4501                	li	a0,0
    125e:	8082                	ret

00001260 <std>:
std():
    1260:	1141                	addi	sp,sp,-16
    1262:	c422                	sw	s0,8(sp)
    1264:	c606                	sw	ra,12(sp)
    1266:	842a                	mv	s0,a0
    1268:	00b51623          	sh	a1,12(a0)
    126c:	00c51723          	sh	a2,14(a0)
    1270:	00052023          	sw	zero,0(a0)
    1274:	00052223          	sw	zero,4(a0)
    1278:	00052423          	sw	zero,8(a0)
    127c:	06052223          	sw	zero,100(a0)
    1280:	00052823          	sw	zero,16(a0)
    1284:	00052a23          	sw	zero,20(a0)
    1288:	00052c23          	sw	zero,24(a0)
    128c:	4621                	li	a2,8
    128e:	4581                	li	a1,0
    1290:	05c50513          	addi	a0,a0,92
    1294:	e8aff0ef          	jal	ra,91e <memset>
    1298:	00000797          	auipc	a5,0x0
    129c:	48678793          	addi	a5,a5,1158 # 171e <__sread>
    12a0:	d05c                	sw	a5,36(s0)
    12a2:	00000797          	auipc	a5,0x0
    12a6:	4ac78793          	addi	a5,a5,1196 # 174e <__swrite>
    12aa:	d41c                	sw	a5,40(s0)
    12ac:	00000797          	auipc	a5,0x0
    12b0:	4f078793          	addi	a5,a5,1264 # 179c <__sseek>
    12b4:	d45c                	sw	a5,44(s0)
    12b6:	00000797          	auipc	a5,0x0
    12ba:	51c78793          	addi	a5,a5,1308 # 17d2 <__sclose>
    12be:	d000                	sw	s0,32(s0)
    12c0:	d81c                	sw	a5,48(s0)
    12c2:	40b2                	lw	ra,12(sp)
    12c4:	4422                	lw	s0,8(sp)
    12c6:	0141                	addi	sp,sp,16
    12c8:	8082                	ret

000012ca <_cleanup_r>:
_cleanup_r():
    12ca:	00000597          	auipc	a1,0x0
    12ce:	f3258593          	addi	a1,a1,-206 # 11fc <_fflush_r>
    12d2:	aa89                	j	1424 <_fwalk_reent>

000012d4 <__sfmoreglue>:
__sfmoreglue():
    12d4:	1141                	addi	sp,sp,-16
    12d6:	c226                	sw	s1,4(sp)
    12d8:	06800613          	li	a2,104
    12dc:	fff58493          	addi	s1,a1,-1
    12e0:	02c484b3          	mul	s1,s1,a2
    12e4:	c04a                	sw	s2,0(sp)
    12e6:	892e                	mv	s2,a1
    12e8:	c422                	sw	s0,8(sp)
    12ea:	c606                	sw	ra,12(sp)
    12ec:	07448593          	addi	a1,s1,116
    12f0:	2e25                	jal	1628 <_malloc_r>
    12f2:	842a                	mv	s0,a0
    12f4:	cd01                	beqz	a0,130c <__sfmoreglue+0x38>
    12f6:	00052023          	sw	zero,0(a0)
    12fa:	01252223          	sw	s2,4(a0)
    12fe:	0531                	addi	a0,a0,12
    1300:	c408                	sw	a0,8(s0)
    1302:	06848613          	addi	a2,s1,104
    1306:	4581                	li	a1,0
    1308:	e16ff0ef          	jal	ra,91e <memset>
    130c:	8522                	mv	a0,s0
    130e:	40b2                	lw	ra,12(sp)
    1310:	4422                	lw	s0,8(sp)
    1312:	4492                	lw	s1,4(sp)
    1314:	4902                	lw	s2,0(sp)
    1316:	0141                	addi	sp,sp,16
    1318:	8082                	ret

0000131a <__sinit>:
__sinit():
    131a:	4d1c                	lw	a5,24(a0)
    131c:	e3bd                	bnez	a5,1382 <__sinit+0x68>
    131e:	1141                	addi	sp,sp,-16
    1320:	c606                	sw	ra,12(sp)
    1322:	c422                	sw	s0,8(sp)
    1324:	00000797          	auipc	a5,0x0
    1328:	fa678793          	addi	a5,a5,-90 # 12ca <_cleanup_r>
    132c:	d51c                	sw	a5,40(a0)
    132e:	00000797          	auipc	a5,0x0
    1332:	6b278793          	addi	a5,a5,1714 # 19e0 <_global_impure_ptr>
    1336:	439c                	lw	a5,0(a5)
    1338:	04052423          	sw	zero,72(a0)
    133c:	04052623          	sw	zero,76(a0)
    1340:	04052823          	sw	zero,80(a0)
    1344:	00f51463          	bne	a0,a5,134c <__sinit+0x32>
    1348:	4785                	li	a5,1
    134a:	cd1c                	sw	a5,24(a0)
    134c:	842a                	mv	s0,a0
    134e:	281d                	jal	1384 <__sfp>
    1350:	c048                	sw	a0,4(s0)
    1352:	8522                	mv	a0,s0
    1354:	2805                	jal	1384 <__sfp>
    1356:	c408                	sw	a0,8(s0)
    1358:	8522                	mv	a0,s0
    135a:	202d                	jal	1384 <__sfp>
    135c:	c448                	sw	a0,12(s0)
    135e:	4048                	lw	a0,4(s0)
    1360:	4601                	li	a2,0
    1362:	4591                	li	a1,4
    1364:	3df5                	jal	1260 <std>
    1366:	4408                	lw	a0,8(s0)
    1368:	4605                	li	a2,1
    136a:	45a5                	li	a1,9
    136c:	3dd5                	jal	1260 <std>
    136e:	4448                	lw	a0,12(s0)
    1370:	4609                	li	a2,2
    1372:	45c9                	li	a1,18
    1374:	35f5                	jal	1260 <std>
    1376:	4785                	li	a5,1
    1378:	cc1c                	sw	a5,24(s0)
    137a:	40b2                	lw	ra,12(sp)
    137c:	4422                	lw	s0,8(sp)
    137e:	0141                	addi	sp,sp,16
    1380:	8082                	ret
    1382:	8082                	ret

00001384 <__sfp>:
__sfp():
    1384:	1141                	addi	sp,sp,-16
    1386:	00000797          	auipc	a5,0x0
    138a:	65a78793          	addi	a5,a5,1626 # 19e0 <_global_impure_ptr>
    138e:	c226                	sw	s1,4(sp)
    1390:	4384                	lw	s1,0(a5)
    1392:	c04a                	sw	s2,0(sp)
    1394:	c606                	sw	ra,12(sp)
    1396:	4c9c                	lw	a5,24(s1)
    1398:	c422                	sw	s0,8(sp)
    139a:	892a                	mv	s2,a0
    139c:	e399                	bnez	a5,13a2 <__sfp+0x1e>
    139e:	8526                	mv	a0,s1
    13a0:	3fad                	jal	131a <__sinit>
    13a2:	04848493          	addi	s1,s1,72
    13a6:	4480                	lw	s0,8(s1)
    13a8:	40dc                	lw	a5,4(s1)
    13aa:	17fd                	addi	a5,a5,-1
    13ac:	0007d663          	bgez	a5,13b8 <__sfp+0x34>
    13b0:	409c                	lw	a5,0(s1)
    13b2:	cfb9                	beqz	a5,1410 <__sfp+0x8c>
    13b4:	4084                	lw	s1,0(s1)
    13b6:	bfc5                	j	13a6 <__sfp+0x22>
    13b8:	00c41703          	lh	a4,12(s0)
    13bc:	e739                	bnez	a4,140a <__sfp+0x86>
    13be:	77c1                	lui	a5,0xffff0
    13c0:	0785                	addi	a5,a5,1
    13c2:	06042223          	sw	zero,100(s0)
    13c6:	00042023          	sw	zero,0(s0)
    13ca:	00042223          	sw	zero,4(s0)
    13ce:	00042423          	sw	zero,8(s0)
    13d2:	c45c                	sw	a5,12(s0)
    13d4:	00042823          	sw	zero,16(s0)
    13d8:	00042a23          	sw	zero,20(s0)
    13dc:	00042c23          	sw	zero,24(s0)
    13e0:	4621                	li	a2,8
    13e2:	4581                	li	a1,0
    13e4:	05c40513          	addi	a0,s0,92
    13e8:	d36ff0ef          	jal	ra,91e <memset>
    13ec:	02042a23          	sw	zero,52(s0)
    13f0:	02042c23          	sw	zero,56(s0)
    13f4:	04042423          	sw	zero,72(s0)
    13f8:	04042623          	sw	zero,76(s0)
    13fc:	8522                	mv	a0,s0
    13fe:	40b2                	lw	ra,12(sp)
    1400:	4422                	lw	s0,8(sp)
    1402:	4492                	lw	s1,4(sp)
    1404:	4902                	lw	s2,0(sp)
    1406:	0141                	addi	sp,sp,16
    1408:	8082                	ret
    140a:	06840413          	addi	s0,s0,104
    140e:	bf71                	j	13aa <__sfp+0x26>
    1410:	4591                	li	a1,4
    1412:	854a                	mv	a0,s2
    1414:	35c1                	jal	12d4 <__sfmoreglue>
    1416:	c088                	sw	a0,0(s1)
    1418:	fd51                	bnez	a0,13b4 <__sfp+0x30>
    141a:	47b1                	li	a5,12
    141c:	00f92023          	sw	a5,0(s2)
    1420:	4401                	li	s0,0
    1422:	bfe9                	j	13fc <__sfp+0x78>

00001424 <_fwalk_reent>:
_fwalk_reent():
    1424:	7179                	addi	sp,sp,-48
    1426:	d422                	sw	s0,40(sp)
    1428:	d04a                	sw	s2,32(sp)
    142a:	cc52                	sw	s4,24(sp)
    142c:	ca56                	sw	s5,20(sp)
    142e:	c85a                	sw	s6,16(sp)
    1430:	c65e                	sw	s7,12(sp)
    1432:	d606                	sw	ra,44(sp)
    1434:	d226                	sw	s1,36(sp)
    1436:	ce4e                	sw	s3,28(sp)
    1438:	8a2a                	mv	s4,a0
    143a:	8aae                	mv	s5,a1
    143c:	04850413          	addi	s0,a0,72
    1440:	4901                	li	s2,0
    1442:	4b05                	li	s6,1
    1444:	5bfd                	li	s7,-1
    1446:	ec09                	bnez	s0,1460 <_fwalk_reent+0x3c>
    1448:	50b2                	lw	ra,44(sp)
    144a:	5422                	lw	s0,40(sp)
    144c:	854a                	mv	a0,s2
    144e:	5492                	lw	s1,36(sp)
    1450:	5902                	lw	s2,32(sp)
    1452:	49f2                	lw	s3,28(sp)
    1454:	4a62                	lw	s4,24(sp)
    1456:	4ad2                	lw	s5,20(sp)
    1458:	4b42                	lw	s6,16(sp)
    145a:	4bb2                	lw	s7,12(sp)
    145c:	6145                	addi	sp,sp,48
    145e:	8082                	ret
    1460:	4404                	lw	s1,8(s0)
    1462:	00442983          	lw	s3,4(s0)
    1466:	19fd                	addi	s3,s3,-1
    1468:	0009d463          	bgez	s3,1470 <_fwalk_reent+0x4c>
    146c:	4000                	lw	s0,0(s0)
    146e:	bfe1                	j	1446 <_fwalk_reent+0x22>
    1470:	00c4d783          	lhu	a5,12(s1)
    1474:	00fb7b63          	bgeu	s6,a5,148a <_fwalk_reent+0x66>
    1478:	00e49783          	lh	a5,14(s1)
    147c:	01778763          	beq	a5,s7,148a <_fwalk_reent+0x66>
    1480:	85a6                	mv	a1,s1
    1482:	8552                	mv	a0,s4
    1484:	9a82                	jalr	s5
    1486:	00a96933          	or	s2,s2,a0
    148a:	06848493          	addi	s1,s1,104
    148e:	bfe1                	j	1466 <_fwalk_reent+0x42>

00001490 <__swhatbuf_r>:
__swhatbuf_r():
    1490:	7119                	addi	sp,sp,-128
    1492:	daa6                	sw	s1,116(sp)
    1494:	84ae                	mv	s1,a1
    1496:	00e59583          	lh	a1,14(a1)
    149a:	dca2                	sw	s0,120(sp)
    149c:	de86                	sw	ra,124(sp)
    149e:	8432                	mv	s0,a2
    14a0:	0005dc63          	bgez	a1,14b8 <__swhatbuf_r+0x28>
    14a4:	00c4d783          	lhu	a5,12(s1)
    14a8:	0006a023          	sw	zero,0(a3)
    14ac:	0807f793          	andi	a5,a5,128
    14b0:	e39d                	bnez	a5,14d6 <__swhatbuf_r+0x46>
    14b2:	40000793          	li	a5,1024
    14b6:	a015                	j	14da <__swhatbuf_r+0x4a>
    14b8:	0830                	addi	a2,sp,24
    14ba:	c636                	sw	a3,12(sp)
    14bc:	2e8d                	jal	182e <_fstat_r>
    14be:	46b2                	lw	a3,12(sp)
    14c0:	fe0542e3          	bltz	a0,14a4 <__swhatbuf_r+0x14>
    14c4:	4772                	lw	a4,28(sp)
    14c6:	67bd                	lui	a5,0xf
    14c8:	8ff9                	and	a5,a5,a4
    14ca:	7779                	lui	a4,0xffffe
    14cc:	97ba                	add	a5,a5,a4
    14ce:	0017b793          	seqz	a5,a5
    14d2:	c29c                	sw	a5,0(a3)
    14d4:	bff9                	j	14b2 <__swhatbuf_r+0x22>
    14d6:	04000793          	li	a5,64
    14da:	c01c                	sw	a5,0(s0)
    14dc:	50f6                	lw	ra,124(sp)
    14de:	5466                	lw	s0,120(sp)
    14e0:	54d6                	lw	s1,116(sp)
    14e2:	4501                	li	a0,0
    14e4:	6109                	addi	sp,sp,128
    14e6:	8082                	ret

000014e8 <__smakebuf_r>:
__smakebuf_r():
    14e8:	00c5d783          	lhu	a5,12(a1)
    14ec:	1101                	addi	sp,sp,-32
    14ee:	cc22                	sw	s0,24(sp)
    14f0:	ce06                	sw	ra,28(sp)
    14f2:	ca26                	sw	s1,20(sp)
    14f4:	c84a                	sw	s2,16(sp)
    14f6:	8b89                	andi	a5,a5,2
    14f8:	842e                	mv	s0,a1
    14fa:	cf89                	beqz	a5,1514 <__smakebuf_r+0x2c>
    14fc:	04740793          	addi	a5,s0,71
    1500:	c01c                	sw	a5,0(s0)
    1502:	c81c                	sw	a5,16(s0)
    1504:	4785                	li	a5,1
    1506:	c85c                	sw	a5,20(s0)
    1508:	40f2                	lw	ra,28(sp)
    150a:	4462                	lw	s0,24(sp)
    150c:	44d2                	lw	s1,20(sp)
    150e:	4942                	lw	s2,16(sp)
    1510:	6105                	addi	sp,sp,32
    1512:	8082                	ret
    1514:	0074                	addi	a3,sp,12
    1516:	0030                	addi	a2,sp,8
    1518:	84aa                	mv	s1,a0
    151a:	3f9d                	jal	1490 <__swhatbuf_r>
    151c:	45a2                	lw	a1,8(sp)
    151e:	892a                	mv	s2,a0
    1520:	8526                	mv	a0,s1
    1522:	2219                	jal	1628 <_malloc_r>
    1524:	ed01                	bnez	a0,153c <__smakebuf_r+0x54>
    1526:	00c41783          	lh	a5,12(s0)
    152a:	2007f713          	andi	a4,a5,512
    152e:	ff69                	bnez	a4,1508 <__smakebuf_r+0x20>
    1530:	9bf1                	andi	a5,a5,-4
    1532:	0027e793          	ori	a5,a5,2
    1536:	00f41623          	sh	a5,12(s0)
    153a:	b7c9                	j	14fc <__smakebuf_r+0x14>
    153c:	00000797          	auipc	a5,0x0
    1540:	d8e78793          	addi	a5,a5,-626 # 12ca <_cleanup_r>
    1544:	d49c                	sw	a5,40(s1)
    1546:	00c45783          	lhu	a5,12(s0)
    154a:	c008                	sw	a0,0(s0)
    154c:	c808                	sw	a0,16(s0)
    154e:	0807e793          	ori	a5,a5,128
    1552:	00f41623          	sh	a5,12(s0)
    1556:	47a2                	lw	a5,8(sp)
    1558:	c85c                	sw	a5,20(s0)
    155a:	47b2                	lw	a5,12(sp)
    155c:	cf89                	beqz	a5,1576 <__smakebuf_r+0x8e>
    155e:	00e41583          	lh	a1,14(s0)
    1562:	8526                	mv	a0,s1
    1564:	2cd5                	jal	1858 <_isatty_r>
    1566:	c901                	beqz	a0,1576 <__smakebuf_r+0x8e>
    1568:	00c45783          	lhu	a5,12(s0)
    156c:	9bf1                	andi	a5,a5,-4
    156e:	0017e793          	ori	a5,a5,1
    1572:	00f41623          	sh	a5,12(s0)
    1576:	00c45783          	lhu	a5,12(s0)
    157a:	00f96933          	or	s2,s2,a5
    157e:	01241623          	sh	s2,12(s0)
    1582:	b759                	j	1508 <__smakebuf_r+0x20>

00001584 <_free_r>:
_free_r():
    1584:	c1cd                	beqz	a1,1626 <_free_r+0xa2>
    1586:	ffc5a783          	lw	a5,-4(a1)
    158a:	1141                	addi	sp,sp,-16
    158c:	c422                	sw	s0,8(sp)
    158e:	c606                	sw	ra,12(sp)
    1590:	c226                	sw	s1,4(sp)
    1592:	ffc58413          	addi	s0,a1,-4
    1596:	0007d363          	bgez	a5,159c <_free_r+0x18>
    159a:	943e                	add	s0,s0,a5
    159c:	84aa                	mv	s1,a0
    159e:	2639                	jal	18ac <__malloc_lock>
    15a0:	83018793          	addi	a5,gp,-2000 # 20004118 <__malloc_free_list>
    15a4:	439c                	lw	a5,0(a5)
    15a6:	eb99                	bnez	a5,15bc <_free_r+0x38>
    15a8:	00042223          	sw	zero,4(s0)
    15ac:	8281a823          	sw	s0,-2000(gp) # 20004118 <__malloc_free_list>
    15b0:	4422                	lw	s0,8(sp)
    15b2:	40b2                	lw	ra,12(sp)
    15b4:	8526                	mv	a0,s1
    15b6:	4492                	lw	s1,4(sp)
    15b8:	0141                	addi	sp,sp,16
    15ba:	acd5                	j	18ae <__malloc_unlock>
    15bc:	00f47e63          	bgeu	s0,a5,15d8 <_free_r+0x54>
    15c0:	4014                	lw	a3,0(s0)
    15c2:	00d40733          	add	a4,s0,a3
    15c6:	00e79663          	bne	a5,a4,15d2 <_free_r+0x4e>
    15ca:	4398                	lw	a4,0(a5)
    15cc:	43dc                	lw	a5,4(a5)
    15ce:	9736                	add	a4,a4,a3
    15d0:	c018                	sw	a4,0(s0)
    15d2:	c05c                	sw	a5,4(s0)
    15d4:	bfe1                	j	15ac <_free_r+0x28>
    15d6:	87ba                	mv	a5,a4
    15d8:	43d8                	lw	a4,4(a5)
    15da:	c319                	beqz	a4,15e0 <_free_r+0x5c>
    15dc:	fee47de3          	bgeu	s0,a4,15d6 <_free_r+0x52>
    15e0:	4394                	lw	a3,0(a5)
    15e2:	00d78633          	add	a2,a5,a3
    15e6:	00861f63          	bne	a2,s0,1604 <_free_r+0x80>
    15ea:	4010                	lw	a2,0(s0)
    15ec:	96b2                	add	a3,a3,a2
    15ee:	c394                	sw	a3,0(a5)
    15f0:	00d78633          	add	a2,a5,a3
    15f4:	fac71ee3          	bne	a4,a2,15b0 <_free_r+0x2c>
    15f8:	4310                	lw	a2,0(a4)
    15fa:	4358                	lw	a4,4(a4)
    15fc:	96b2                	add	a3,a3,a2
    15fe:	c394                	sw	a3,0(a5)
    1600:	c3d8                	sw	a4,4(a5)
    1602:	b77d                	j	15b0 <_free_r+0x2c>
    1604:	00c47563          	bgeu	s0,a2,160e <_free_r+0x8a>
    1608:	47b1                	li	a5,12
    160a:	c09c                	sw	a5,0(s1)
    160c:	b755                	j	15b0 <_free_r+0x2c>
    160e:	4010                	lw	a2,0(s0)
    1610:	00c406b3          	add	a3,s0,a2
    1614:	00d71663          	bne	a4,a3,1620 <_free_r+0x9c>
    1618:	4314                	lw	a3,0(a4)
    161a:	4358                	lw	a4,4(a4)
    161c:	96b2                	add	a3,a3,a2
    161e:	c014                	sw	a3,0(s0)
    1620:	c058                	sw	a4,4(s0)
    1622:	c3c0                	sw	s0,4(a5)
    1624:	b771                	j	15b0 <_free_r+0x2c>
    1626:	8082                	ret

00001628 <_malloc_r>:
_malloc_r():
    1628:	1101                	addi	sp,sp,-32
    162a:	ca26                	sw	s1,20(sp)
    162c:	00358493          	addi	s1,a1,3
    1630:	98f1                	andi	s1,s1,-4
    1632:	ce06                	sw	ra,28(sp)
    1634:	cc22                	sw	s0,24(sp)
    1636:	c84a                	sw	s2,16(sp)
    1638:	c64e                	sw	s3,12(sp)
    163a:	04a1                	addi	s1,s1,8
    163c:	47b1                	li	a5,12
    163e:	04f4f163          	bgeu	s1,a5,1680 <_malloc_r+0x58>
    1642:	44b1                	li	s1,12
    1644:	04b4e063          	bltu	s1,a1,1684 <_malloc_r+0x5c>
    1648:	892a                	mv	s2,a0
    164a:	248d                	jal	18ac <__malloc_lock>
    164c:	83018793          	addi	a5,gp,-2000 # 20004118 <__malloc_free_list>
    1650:	4398                	lw	a4,0(a5)
    1652:	843a                	mv	s0,a4
    1654:	e031                	bnez	s0,1698 <_malloc_r+0x70>
    1656:	83418793          	addi	a5,gp,-1996 # 2000411c <__malloc_sbrk_start>
    165a:	439c                	lw	a5,0(a5)
    165c:	e791                	bnez	a5,1668 <_malloc_r+0x40>
    165e:	4581                	li	a1,0
    1660:	854a                	mv	a0,s2
    1662:	2851                	jal	16f6 <_sbrk_r>
    1664:	82a1aa23          	sw	a0,-1996(gp) # 2000411c <__malloc_sbrk_start>
    1668:	85a6                	mv	a1,s1
    166a:	854a                	mv	a0,s2
    166c:	2069                	jal	16f6 <_sbrk_r>
    166e:	59fd                	li	s3,-1
    1670:	07351763          	bne	a0,s3,16de <_malloc_r+0xb6>
    1674:	47b1                	li	a5,12
    1676:	00f92023          	sw	a5,0(s2)
    167a:	854a                	mv	a0,s2
    167c:	2c0d                	jal	18ae <__malloc_unlock>
    167e:	a029                	j	1688 <_malloc_r+0x60>
    1680:	fc04d2e3          	bgez	s1,1644 <_malloc_r+0x1c>
    1684:	47b1                	li	a5,12
    1686:	c11c                	sw	a5,0(a0)
    1688:	4501                	li	a0,0
    168a:	40f2                	lw	ra,28(sp)
    168c:	4462                	lw	s0,24(sp)
    168e:	44d2                	lw	s1,20(sp)
    1690:	4942                	lw	s2,16(sp)
    1692:	49b2                	lw	s3,12(sp)
    1694:	6105                	addi	sp,sp,32
    1696:	8082                	ret
    1698:	401c                	lw	a5,0(s0)
    169a:	8f85                	sub	a5,a5,s1
    169c:	0207ce63          	bltz	a5,16d8 <_malloc_r+0xb0>
    16a0:	46ad                	li	a3,11
    16a2:	00f6f663          	bgeu	a3,a5,16ae <_malloc_r+0x86>
    16a6:	c01c                	sw	a5,0(s0)
    16a8:	943e                	add	s0,s0,a5
    16aa:	c004                	sw	s1,0(s0)
    16ac:	a031                	j	16b8 <_malloc_r+0x90>
    16ae:	405c                	lw	a5,4(s0)
    16b0:	02871263          	bne	a4,s0,16d4 <_malloc_r+0xac>
    16b4:	82f1a823          	sw	a5,-2000(gp) # 20004118 <__malloc_free_list>
    16b8:	854a                	mv	a0,s2
    16ba:	2ad5                	jal	18ae <__malloc_unlock>
    16bc:	00b40513          	addi	a0,s0,11
    16c0:	00440793          	addi	a5,s0,4
    16c4:	9961                	andi	a0,a0,-8
    16c6:	40f50733          	sub	a4,a0,a5
    16ca:	d361                	beqz	a4,168a <_malloc_r+0x62>
    16cc:	943a                	add	s0,s0,a4
    16ce:	8f89                	sub	a5,a5,a0
    16d0:	c01c                	sw	a5,0(s0)
    16d2:	bf65                	j	168a <_malloc_r+0x62>
    16d4:	c35c                	sw	a5,4(a4)
    16d6:	b7cd                	j	16b8 <_malloc_r+0x90>
    16d8:	8722                	mv	a4,s0
    16da:	4040                	lw	s0,4(s0)
    16dc:	bfa5                	j	1654 <_malloc_r+0x2c>
    16de:	00350413          	addi	s0,a0,3
    16e2:	9871                	andi	s0,s0,-4
    16e4:	fc8503e3          	beq	a0,s0,16aa <_malloc_r+0x82>
    16e8:	40a405b3          	sub	a1,s0,a0
    16ec:	854a                	mv	a0,s2
    16ee:	2021                	jal	16f6 <_sbrk_r>
    16f0:	fb351de3          	bne	a0,s3,16aa <_malloc_r+0x82>
    16f4:	b741                	j	1674 <_malloc_r+0x4c>

000016f6 <_sbrk_r>:
_sbrk_r():
    16f6:	1141                	addi	sp,sp,-16
    16f8:	c422                	sw	s0,8(sp)
    16fa:	842a                	mv	s0,a0
    16fc:	852e                	mv	a0,a1
    16fe:	a201a023          	sw	zero,-1504(gp) # 20004308 <errno>
    1702:	c606                	sw	ra,12(sp)
    1704:	2c11                	jal	1918 <_sbrk>
    1706:	57fd                	li	a5,-1
    1708:	00f51763          	bne	a0,a5,1716 <_sbrk_r+0x20>
    170c:	a2018793          	addi	a5,gp,-1504 # 20004308 <errno>
    1710:	439c                	lw	a5,0(a5)
    1712:	c391                	beqz	a5,1716 <_sbrk_r+0x20>
    1714:	c01c                	sw	a5,0(s0)
    1716:	40b2                	lw	ra,12(sp)
    1718:	4422                	lw	s0,8(sp)
    171a:	0141                	addi	sp,sp,16
    171c:	8082                	ret

0000171e <__sread>:
__sread():
    171e:	1141                	addi	sp,sp,-16
    1720:	c422                	sw	s0,8(sp)
    1722:	842e                	mv	s0,a1
    1724:	00e59583          	lh	a1,14(a1)
    1728:	c606                	sw	ra,12(sp)
    172a:	2259                	jal	18b0 <_read_r>
    172c:	00054963          	bltz	a0,173e <__sread+0x20>
    1730:	487c                	lw	a5,84(s0)
    1732:	97aa                	add	a5,a5,a0
    1734:	c87c                	sw	a5,84(s0)
    1736:	40b2                	lw	ra,12(sp)
    1738:	4422                	lw	s0,8(sp)
    173a:	0141                	addi	sp,sp,16
    173c:	8082                	ret
    173e:	00c45783          	lhu	a5,12(s0)
    1742:	777d                	lui	a4,0xfffff
    1744:	177d                	addi	a4,a4,-1
    1746:	8ff9                	and	a5,a5,a4
    1748:	00f41623          	sh	a5,12(s0)
    174c:	b7ed                	j	1736 <__sread+0x18>

0000174e <__swrite>:
__swrite():
    174e:	00c5d783          	lhu	a5,12(a1)
    1752:	1101                	addi	sp,sp,-32
    1754:	cc22                	sw	s0,24(sp)
    1756:	ca26                	sw	s1,20(sp)
    1758:	c84a                	sw	s2,16(sp)
    175a:	c64e                	sw	s3,12(sp)
    175c:	ce06                	sw	ra,28(sp)
    175e:	1007f793          	andi	a5,a5,256
    1762:	84aa                	mv	s1,a0
    1764:	842e                	mv	s0,a1
    1766:	8932                	mv	s2,a2
    1768:	89b6                	mv	s3,a3
    176a:	c791                	beqz	a5,1776 <__swrite+0x28>
    176c:	00e59583          	lh	a1,14(a1)
    1770:	4689                	li	a3,2
    1772:	4601                	li	a2,0
    1774:	2231                	jal	1880 <_lseek_r>
    1776:	00c45783          	lhu	a5,12(s0)
    177a:	777d                	lui	a4,0xfffff
    177c:	177d                	addi	a4,a4,-1
    177e:	8ff9                	and	a5,a5,a4
    1780:	00f41623          	sh	a5,12(s0)
    1784:	00e41583          	lh	a1,14(s0)
    1788:	4462                	lw	s0,24(sp)
    178a:	40f2                	lw	ra,28(sp)
    178c:	86ce                	mv	a3,s3
    178e:	864a                	mv	a2,s2
    1790:	49b2                	lw	s3,12(sp)
    1792:	4942                	lw	s2,16(sp)
    1794:	8526                	mv	a0,s1
    1796:	44d2                	lw	s1,20(sp)
    1798:	6105                	addi	sp,sp,32
    179a:	a83d                	j	17d8 <_write_r>

0000179c <__sseek>:
__sseek():
    179c:	1141                	addi	sp,sp,-16
    179e:	c422                	sw	s0,8(sp)
    17a0:	842e                	mv	s0,a1
    17a2:	00e59583          	lh	a1,14(a1)
    17a6:	c606                	sw	ra,12(sp)
    17a8:	28e1                	jal	1880 <_lseek_r>
    17aa:	57fd                	li	a5,-1
    17ac:	00c45703          	lhu	a4,12(s0)
    17b0:	00f51b63          	bne	a0,a5,17c6 <__sseek+0x2a>
    17b4:	77fd                	lui	a5,0xfffff
    17b6:	17fd                	addi	a5,a5,-1
    17b8:	8ff9                	and	a5,a5,a4
    17ba:	00f41623          	sh	a5,12(s0)
    17be:	40b2                	lw	ra,12(sp)
    17c0:	4422                	lw	s0,8(sp)
    17c2:	0141                	addi	sp,sp,16
    17c4:	8082                	ret
    17c6:	6785                	lui	a5,0x1
    17c8:	8fd9                	or	a5,a5,a4
    17ca:	00f41623          	sh	a5,12(s0)
    17ce:	c868                	sw	a0,84(s0)
    17d0:	b7fd                	j	17be <__sseek+0x22>

000017d2 <__sclose>:
__sclose():
    17d2:	00e59583          	lh	a1,14(a1)
    17d6:	a805                	j	1806 <_close_r>

000017d8 <_write_r>:
_write_r():
    17d8:	1141                	addi	sp,sp,-16
    17da:	c422                	sw	s0,8(sp)
    17dc:	842a                	mv	s0,a0
    17de:	852e                	mv	a0,a1
    17e0:	85b2                	mv	a1,a2
    17e2:	8636                	mv	a2,a3
    17e4:	a201a023          	sw	zero,-1504(gp) # 20004308 <errno>
    17e8:	c606                	sw	ra,12(sp)
    17ea:	d42ff0ef          	jal	ra,d2c <_write>
    17ee:	57fd                	li	a5,-1
    17f0:	00f51763          	bne	a0,a5,17fe <_write_r+0x26>
    17f4:	a2018793          	addi	a5,gp,-1504 # 20004308 <errno>
    17f8:	439c                	lw	a5,0(a5)
    17fa:	c391                	beqz	a5,17fe <_write_r+0x26>
    17fc:	c01c                	sw	a5,0(s0)
    17fe:	40b2                	lw	ra,12(sp)
    1800:	4422                	lw	s0,8(sp)
    1802:	0141                	addi	sp,sp,16
    1804:	8082                	ret

00001806 <_close_r>:
_close_r():
    1806:	1141                	addi	sp,sp,-16
    1808:	c422                	sw	s0,8(sp)
    180a:	842a                	mv	s0,a0
    180c:	852e                	mv	a0,a1
    180e:	a201a023          	sw	zero,-1504(gp) # 20004308 <errno>
    1812:	c606                	sw	ra,12(sp)
    1814:	20e1                	jal	18dc <_close>
    1816:	57fd                	li	a5,-1
    1818:	00f51763          	bne	a0,a5,1826 <_close_r+0x20>
    181c:	a2018793          	addi	a5,gp,-1504 # 20004308 <errno>
    1820:	439c                	lw	a5,0(a5)
    1822:	c391                	beqz	a5,1826 <_close_r+0x20>
    1824:	c01c                	sw	a5,0(s0)
    1826:	40b2                	lw	ra,12(sp)
    1828:	4422                	lw	s0,8(sp)
    182a:	0141                	addi	sp,sp,16
    182c:	8082                	ret

0000182e <_fstat_r>:
_fstat_r():
    182e:	1141                	addi	sp,sp,-16
    1830:	c422                	sw	s0,8(sp)
    1832:	842a                	mv	s0,a0
    1834:	852e                	mv	a0,a1
    1836:	85b2                	mv	a1,a2
    1838:	a201a023          	sw	zero,-1504(gp) # 20004308 <errno>
    183c:	c606                	sw	ra,12(sp)
    183e:	206d                	jal	18e8 <_fstat>
    1840:	57fd                	li	a5,-1
    1842:	00f51763          	bne	a0,a5,1850 <_fstat_r+0x22>
    1846:	a2018793          	addi	a5,gp,-1504 # 20004308 <errno>
    184a:	439c                	lw	a5,0(a5)
    184c:	c391                	beqz	a5,1850 <_fstat_r+0x22>
    184e:	c01c                	sw	a5,0(s0)
    1850:	40b2                	lw	ra,12(sp)
    1852:	4422                	lw	s0,8(sp)
    1854:	0141                	addi	sp,sp,16
    1856:	8082                	ret

00001858 <_isatty_r>:
_isatty_r():
    1858:	1141                	addi	sp,sp,-16
    185a:	c422                	sw	s0,8(sp)
    185c:	842a                	mv	s0,a0
    185e:	852e                	mv	a0,a1
    1860:	a201a023          	sw	zero,-1504(gp) # 20004308 <errno>
    1864:	c606                	sw	ra,12(sp)
    1866:	2079                	jal	18f4 <_isatty>
    1868:	57fd                	li	a5,-1
    186a:	00f51763          	bne	a0,a5,1878 <_isatty_r+0x20>
    186e:	a2018793          	addi	a5,gp,-1504 # 20004308 <errno>
    1872:	439c                	lw	a5,0(a5)
    1874:	c391                	beqz	a5,1878 <_isatty_r+0x20>
    1876:	c01c                	sw	a5,0(s0)
    1878:	40b2                	lw	ra,12(sp)
    187a:	4422                	lw	s0,8(sp)
    187c:	0141                	addi	sp,sp,16
    187e:	8082                	ret

00001880 <_lseek_r>:
_lseek_r():
    1880:	1141                	addi	sp,sp,-16
    1882:	c422                	sw	s0,8(sp)
    1884:	842a                	mv	s0,a0
    1886:	852e                	mv	a0,a1
    1888:	85b2                	mv	a1,a2
    188a:	8636                	mv	a2,a3
    188c:	a201a023          	sw	zero,-1504(gp) # 20004308 <errno>
    1890:	c606                	sw	ra,12(sp)
    1892:	20bd                	jal	1900 <_lseek>
    1894:	57fd                	li	a5,-1
    1896:	00f51763          	bne	a0,a5,18a4 <_lseek_r+0x24>
    189a:	a2018793          	addi	a5,gp,-1504 # 20004308 <errno>
    189e:	439c                	lw	a5,0(a5)
    18a0:	c391                	beqz	a5,18a4 <_lseek_r+0x24>
    18a2:	c01c                	sw	a5,0(s0)
    18a4:	40b2                	lw	ra,12(sp)
    18a6:	4422                	lw	s0,8(sp)
    18a8:	0141                	addi	sp,sp,16
    18aa:	8082                	ret

000018ac <__malloc_lock>:
__malloc_lock():
    18ac:	8082                	ret

000018ae <__malloc_unlock>:
__malloc_unlock():
    18ae:	8082                	ret

000018b0 <_read_r>:
_read_r():
    18b0:	1141                	addi	sp,sp,-16
    18b2:	c422                	sw	s0,8(sp)
    18b4:	842a                	mv	s0,a0
    18b6:	852e                	mv	a0,a1
    18b8:	85b2                	mv	a1,a2
    18ba:	8636                	mv	a2,a3
    18bc:	a201a023          	sw	zero,-1504(gp) # 20004308 <errno>
    18c0:	c606                	sw	ra,12(sp)
    18c2:	20a9                	jal	190c <_read>
    18c4:	57fd                	li	a5,-1
    18c6:	00f51763          	bne	a0,a5,18d4 <_read_r+0x24>
    18ca:	a2018793          	addi	a5,gp,-1504 # 20004308 <errno>
    18ce:	439c                	lw	a5,0(a5)
    18d0:	c391                	beqz	a5,18d4 <_read_r+0x24>
    18d2:	c01c                	sw	a5,0(s0)
    18d4:	40b2                	lw	ra,12(sp)
    18d6:	4422                	lw	s0,8(sp)
    18d8:	0141                	addi	sp,sp,16
    18da:	8082                	ret

000018dc <_close>:
_close():
    18dc:	05800793          	li	a5,88
    18e0:	a2f1a023          	sw	a5,-1504(gp) # 20004308 <errno>
    18e4:	557d                	li	a0,-1
    18e6:	8082                	ret

000018e8 <_fstat>:
_fstat():
    18e8:	05800793          	li	a5,88
    18ec:	a2f1a023          	sw	a5,-1504(gp) # 20004308 <errno>
    18f0:	557d                	li	a0,-1
    18f2:	8082                	ret

000018f4 <_isatty>:
_isatty():
    18f4:	05800793          	li	a5,88
    18f8:	a2f1a023          	sw	a5,-1504(gp) # 20004308 <errno>
    18fc:	4501                	li	a0,0
    18fe:	8082                	ret

00001900 <_lseek>:
_lseek():
    1900:	05800793          	li	a5,88
    1904:	a2f1a023          	sw	a5,-1504(gp) # 20004308 <errno>
    1908:	557d                	li	a0,-1
    190a:	8082                	ret

0000190c <_read>:
_read():
    190c:	05800793          	li	a5,88
    1910:	a2f1a023          	sw	a5,-1504(gp) # 20004308 <errno>
    1914:	557d                	li	a0,-1
    1916:	8082                	ret

00001918 <_sbrk>:
_sbrk():
    1918:	83818793          	addi	a5,gp,-1992 # 20004120 <heap_end.1518>
    191c:	439c                	lw	a5,0(a5)
    191e:	c791                	beqz	a5,192a <_sbrk+0x12>
    1920:	953e                	add	a0,a0,a5
    1922:	82a1ac23          	sw	a0,-1992(gp) # 20004120 <heap_end.1518>
    1926:	853e                	mv	a0,a5
    1928:	8082                	ret
    192a:	a2418793          	addi	a5,gp,-1500 # 2000430c <_ebss>
    192e:	953e                	add	a0,a0,a5
    1930:	82a1ac23          	sw	a0,-1992(gp) # 20004120 <heap_end.1518>
    1934:	853e                	mv	a0,a5
    1936:	8082                	ret
    1938:	6552                	flw	fa0,20(sp)
    193a:	76696563          	bltu	s2,t1,20a4 <_data_lma+0x6c0>
    193e:	6465                	lui	s0,0x19
    1940:	203a                	fld	ft0,392(sp)
    1942:	0000                	unimp
    1944:	0a0d                	addi	s4,s4,3
    1946:	0000                	unimp
    1948:	6e45                	lui	t3,0x11
    194a:	6574                	flw	fa3,76(a0)
    194c:	2072                	fld	ft0,280(sp)
    194e:	6d6d6f63          	bltu	s10,s6,202c <_data_lma+0x648>
    1952:	6e61                	lui	t3,0x18
    1954:	3a64                	fld	fs1,240(a2)
    1956:	0020                	addi	s0,sp,8
    1958:	f304                	fsw	fs1,32(a4)
    195a:	ffff                	0xffff
    195c:	f32c                	fsw	fa1,96(a4)
    195e:	ffff                	0xffff
    1960:	f354                	fsw	fa3,36(a4)
    1962:	ffff                	0xffff
    1964:	f36c                	fsw	fa1,100(a4)
    1966:	ffff                	0xffff
    1968:	f386                	fsw	ft1,228(sp)
    196a:	ffff                	0xffff
    196c:	6148                	flw	fa0,4(a0)
    196e:	6472                	flw	fs0,28(sp)
    1970:	6146                	flw	ft2,80(sp)
    1972:	6c75                	lui	s8,0x1d
    1974:	5f74                	lw	a3,124(a4)
    1976:	6148                	flw	fa0,4(a0)
    1978:	646e                	flw	fs0,216(sp)
    197a:	656c                	flw	fa1,76(a0)
    197c:	0072                	c.slli	zero,0x1c
	...

00001980 <__sf_fake_stderr>:
	...

000019a0 <__sf_fake_stdin>:
	...

000019c0 <__sf_fake_stdout>:
	...

000019e0 <_global_impure_ptr>:
    19e0:	4088 2000                                   .@. 
